
output/kernel.elf:     file format elf32-littlearm


Disassembly of section .text:

00008000 <__start>:
    8000:	ee101fb0 	mrc	15, 0, r1, cr0, cr0, {5}
    8004:	e2011003 	and	r1, r1, #3
    8008:	e3510002 	cmp	r1, #2
    800c:	1a00000a 	bne	803c <halt>
    8010:	e59f402c 	ldr	r4, [pc, #44]	; 8044 <halt+0x8>
    8014:	e1a0d004 	mov	sp, r4
    8018:	e59f4028 	ldr	r4, [pc, #40]	; 8048 <halt+0xc>
    801c:	e59f9028 	ldr	r9, [pc, #40]	; 804c <halt+0x10>
    8020:	e3a05000 	mov	r5, #0

00008024 <next_word>:
    8024:	e1540009 	cmp	r4, r9
    8028:	aa000001 	bge	8034 <end_bss_init>
    802c:	e8a40020 	stmia	r4!, {r5}
    8030:	eafffffb 	b	8024 <next_word>

00008034 <end_bss_init>:
    8034:	e59f3014 	ldr	r3, [pc, #20]	; 8050 <halt+0x14>
    8038:	e12fff33 	blx	r3

0000803c <halt>:
    803c:	e320f002 	wfe
    8040:	eafffffd 	b	803c <halt>
    8044:	00016bf0 	strdeq	r6, [r1], -r0
    8048:	000136f0 	strdeq	r3, [r1], -r0
    804c:	000136f0 	strdeq	r3, [r1], -r0
    8050:	0000a594 	muleq	r0, r4, r5
	...

00008060 <location>:
    8060:	00000000 	andeq	r0, r0, r0

00008064 <address>:
    8064:	00000000 	andeq	r0, r0, r0

00008068 <_video_sample>:
    8068:	e52de004 	push	{lr}		; (str lr, [sp, #-4]!)
    806c:	e59f1f9c 	ldr	r1, [pc, #3996]	; 9010 <txt_vc_fail+0x1e>
    8070:	eb00004b 	bl	81a4 <mb0_c8_write>
    8074:	eb000052 	bl	81c4 <mb0_c8_read>
    8078:	e3100102 	tst	r0, #-2147483648	; 0x80000000
    807c:	0a000008 	beq	80a4 <.vc_init_fail>
    8080:	e59f1f8c 	ldr	r1, [pc, #3980]	; 9014 <txt_vc_fail+0x22>
    8084:	eb000046 	bl	81a4 <mb0_c8_write>
    8088:	eb00004d 	bl	81c4 <mb0_c8_read>
    808c:	e3100122 	tst	r0, #-2147483640	; 0x80000008
    8090:	0a000003 	beq	80a4 <.vc_init_fail>
    8094:	e5910014 	ldr	r0, [r1, #20]
    8098:	e3500000 	cmp	r0, #0
    809c:	0a000000 	beq	80a4 <.vc_init_fail>
    80a0:	e49df004 	pop	{pc}		; (ldr pc, [sp], #4)

000080a4 <.vc_init_fail>:
    80a4:	e59f1f6c 	ldr	r1, [pc, #3948]	; 9018 <txt_vc_fail+0x26>
    80a8:	eb000031 	bl	8174 <uart0_puts>

000080ac <_video_init>:
    80ac:	e52de004 	push	{lr}		; (str lr, [sp, #-4]!)
    80b0:	e92d03f0 	push	{r4, r5, r6, r7, r8, r9}
    80b4:	e59f1f54 	ldr	r1, [pc, #3924]	; 9010 <txt_vc_fail+0x1e>
    80b8:	eb000039 	bl	81a4 <mb0_c8_write>
    80bc:	eb000040 	bl	81c4 <mb0_c8_read>
    80c0:	e3100102 	tst	r0, #-2147483648	; 0x80000000
    80c4:	0afffff6 	beq	80a4 <.vc_init_fail>
    80c8:	e8bd03f0 	pop	{r4, r5, r6, r7, r8, r9}
    80cc:	e49df004 	pop	{pc}		; (ldr pc, [sp], #4)

000080d0 <halt>:
    80d0:	e320f002 	wfe
    80d4:	eafffffd 	b	80d0 <halt>

000080d8 <uart0_init>:
    80d8:	e59f1f3c 	ldr	r1, [pc, #3900]	; 901c <txt_vc_fail+0x2a>
    80dc:	e3a02000 	mov	r2, #0
    80e0:	e5812000 	str	r2, [r1]
    80e4:	e59f1f34 	ldr	r1, [pc, #3892]	; 9020 <txt_vc_fail+0x2e>
    80e8:	e3a02000 	mov	r2, #0
    80ec:	e5812000 	str	r2, [r1]
    80f0:	e3a01096 	mov	r1, #150	; 0x96
    80f4:	e2411001 	sub	r1, r1, #1
    80f8:	e3510000 	cmp	r1, #0
    80fc:	1afffffc 	bne	80f4 <uart0_init+0x1c>
    8100:	e59f1f1c 	ldr	r1, [pc, #3868]	; 9024 <txt_vc_fail+0x32>
    8104:	e3a02903 	mov	r2, #49152	; 0xc000
    8108:	e5812000 	str	r2, [r1]
    810c:	e3a01096 	mov	r1, #150	; 0x96
    8110:	e2411001 	sub	r1, r1, #1
    8114:	e3510000 	cmp	r1, #0
    8118:	1afffffc 	bne	8110 <uart0_init+0x38>
    811c:	e59f1f00 	ldr	r1, [pc, #3840]	; 9024 <txt_vc_fail+0x32>
    8120:	e3a02000 	mov	r2, #0
    8124:	e5812000 	str	r2, [r1]
    8128:	e59f1ef8 	ldr	r1, [pc, #3832]	; 9028 <txt_vc_fail+0x36>
    812c:	e59f2ef8 	ldr	r2, [pc, #3832]	; 902c <txt_vc_fail+0x3a>
    8130:	e5812000 	str	r2, [r1]
    8134:	e59f1ef4 	ldr	r1, [pc, #3828]	; 9030 <txt_vc_fail+0x3e>
    8138:	e3a02001 	mov	r2, #1
    813c:	e5812000 	str	r2, [r1]
    8140:	e59f1eec 	ldr	r1, [pc, #3820]	; 9034 <txt_vc_fail+0x42>
    8144:	e3a02028 	mov	r2, #40	; 0x28
    8148:	e5812000 	str	r2, [r1]
    814c:	e59f1ee4 	ldr	r1, [pc, #3812]	; 9038 <txt_vc_fail+0x46>
    8150:	e3a02070 	mov	r2, #112	; 0x70
    8154:	e5812000 	str	r2, [r1]
    8158:	e59f1edc 	ldr	r1, [pc, #3804]	; 903c <txt_vc_fail+0x4a>
    815c:	e59f2edc 	ldr	r2, [pc, #3804]	; 9040 <txt_vc_fail+0x4e>
    8160:	e5812000 	str	r2, [r1]
    8164:	e59f1eb0 	ldr	r1, [pc, #3760]	; 901c <txt_vc_fail+0x2a>
    8168:	e59f2ed4 	ldr	r2, [pc, #3796]	; 9044 <txt_vc_fail+0x52>
    816c:	e5812000 	str	r2, [r1]
    8170:	e1a0f00e 	mov	pc, lr

00008174 <uart0_puts>:
    8174:	e59f3ecc 	ldr	r3, [pc, #3788]	; 9048 <txt_vc_fail+0x56>
    8178:	e59f4ecc 	ldr	r4, [pc, #3788]	; 904c <txt_vc_fail+0x5a>

0000817c <.putc_loop>:
    817c:	e5940000 	ldr	r0, [r4]
    8180:	e3100020 	tst	r0, #32
    8184:	1afffffc 	bne	817c <.putc_loop>
    8188:	e5d12000 	ldrb	r2, [r1]
    818c:	e3520000 	cmp	r2, #0
    8190:	0a000002 	beq	81a0 <.uart0_puts_end>
    8194:	e5832000 	str	r2, [r3]
    8198:	e2811001 	add	r1, r1, #1
    819c:	eafffff6 	b	817c <.putc_loop>

000081a0 <.uart0_puts_end>:
    81a0:	e1a0f00e 	mov	pc, lr

000081a4 <mb0_c8_write>:
    81a4:	e59f3ea4 	ldr	r3, [pc, #3748]	; 9050 <txt_vc_fail+0x5e>

000081a8 <.mb0_full>:
    81a8:	e5932018 	ldr	r2, [r3, #24]
    81ac:	e3120102 	tst	r2, #-2147483648	; 0x80000000
    81b0:	1afffffc 	bne	81a8 <.mb0_full>
    81b4:	e2811008 	add	r1, r1, #8
    81b8:	e5831020 	str	r1, [r3, #32]
    81bc:	e2411008 	sub	r1, r1, #8
    81c0:	e1a0f00e 	mov	pc, lr

000081c4 <mb0_c8_read>:
    81c4:	e59f2e84 	ldr	r2, [pc, #3716]	; 9050 <txt_vc_fail+0x5e>

000081c8 <.mb0_empty>:
    81c8:	e5923018 	ldr	r3, [r2, #24]
    81cc:	e3130101 	tst	r3, #1073741824	; 0x40000000
    81d0:	1afffffc 	bne	81c8 <.mb0_empty>
    81d4:	e5924000 	ldr	r4, [r2]
    81d8:	e204000f 	and	r0, r4, #15
    81dc:	e3300008 	teq	r0, #8
    81e0:	1afffff8 	bne	81c8 <.mb0_empty>
    81e4:	e5910004 	ldr	r0, [r1, #4]
    81e8:	e1a0f00e 	mov	pc, lr

000081ec <_vc_draw_pixel>:
    81ec:	e92d43f0 	push	{r4, r5, r6, r7, r8, r9, lr}
    81f0:	e1a09002 	mov	r9, r2
    81f4:	e1a08001 	mov	r8, r1
    81f8:	e1a07000 	mov	r7, r0
    81fc:	e59f1e10 	ldr	r1, [pc, #3600]	; 9014 <txt_vc_fail+0x22>
    8200:	ebffffe7 	bl	81a4 <mb0_c8_write>
    8204:	ebffffee 	bl	81c4 <mb0_c8_read>
    8208:	e3100122 	tst	r0, #-2147483640	; 0x80000008
    820c:	0affffa4 	beq	80a4 <.vc_init_fail>
    8210:	e5910014 	ldr	r0, [r1, #20]
    8214:	e3500000 	cmp	r0, #0
    8218:	0affffa1 	beq	80a4 <.vc_init_fail>
    821c:	e0800007 	add	r0, r0, r7
    8220:	e0800008 	add	r0, r0, r8
    8224:	e3e02000 	mvn	r2, #0
    8228:	e5802000 	str	r2, [r0]
    822c:	e8bd03f0 	pop	{r4, r5, r6, r7, r8, r9}
    8230:	e49df004 	pop	{pc}		; (ldr pc, [sp], #4)

00008234 <vc_draw_no_os_bmp>:
    8234:	e3e01000 	mvn	r1, #0
    8238:	e59f2e14 	ldr	r2, [pc, #3604]	; 9054 <txt_vc_fail+0x62>
    823c:	e0800002 	add	r0, r0, r2
    8240:	e5801000 	str	r1, [r0]
    8244:	e5801004 	str	r1, [r0, #4]
    8248:	e5801020 	str	r1, [r0, #32]
    824c:	e5801024 	str	r1, [r0, #36]	; 0x24
    8250:	e5801038 	str	r1, [r0, #56]	; 0x38
    8254:	e580103c 	str	r1, [r0, #60]	; 0x3c
    8258:	e5801040 	str	r1, [r0, #64]	; 0x40
    825c:	e5801044 	str	r1, [r0, #68]	; 0x44
    8260:	e5801048 	str	r1, [r0, #72]	; 0x48
    8264:	e580104c 	str	r1, [r0, #76]	; 0x4c
    8268:	e5801078 	str	r1, [r0, #120]	; 0x78
    826c:	e580107c 	str	r1, [r0, #124]	; 0x7c
    8270:	e5801080 	str	r1, [r0, #128]	; 0x80
    8274:	e5801084 	str	r1, [r0, #132]	; 0x84
    8278:	e5801088 	str	r1, [r0, #136]	; 0x88
    827c:	e580108c 	str	r1, [r0, #140]	; 0x8c
    8280:	e58010a8 	str	r1, [r0, #168]	; 0xa8
    8284:	e58010ac 	str	r1, [r0, #172]	; 0xac
    8288:	e58010b0 	str	r1, [r0, #176]	; 0xb0
    828c:	e58010b4 	str	r1, [r0, #180]	; 0xb4
    8290:	e58010b8 	str	r1, [r0, #184]	; 0xb8
    8294:	e58010bc 	str	r1, [r0, #188]	; 0xbc
    8298:	e58010c0 	str	r1, [r0, #192]	; 0xc0
    829c:	e58010c4 	str	r1, [r0, #196]	; 0xc4
    82a0:	e2800c05 	add	r0, r0, #1280	; 0x500
    82a4:	e5801000 	str	r1, [r0]
    82a8:	e5801004 	str	r1, [r0, #4]
    82ac:	e5801020 	str	r1, [r0, #32]
    82b0:	e5801024 	str	r1, [r0, #36]	; 0x24
    82b4:	e5801038 	str	r1, [r0, #56]	; 0x38
    82b8:	e580103c 	str	r1, [r0, #60]	; 0x3c
    82bc:	e5801040 	str	r1, [r0, #64]	; 0x40
    82c0:	e5801044 	str	r1, [r0, #68]	; 0x44
    82c4:	e5801048 	str	r1, [r0, #72]	; 0x48
    82c8:	e580104c 	str	r1, [r0, #76]	; 0x4c
    82cc:	e5801078 	str	r1, [r0, #120]	; 0x78
    82d0:	e580107c 	str	r1, [r0, #124]	; 0x7c
    82d4:	e5801080 	str	r1, [r0, #128]	; 0x80
    82d8:	e5801084 	str	r1, [r0, #132]	; 0x84
    82dc:	e5801088 	str	r1, [r0, #136]	; 0x88
    82e0:	e580108c 	str	r1, [r0, #140]	; 0x8c
    82e4:	e58010a8 	str	r1, [r0, #168]	; 0xa8
    82e8:	e58010ac 	str	r1, [r0, #172]	; 0xac
    82ec:	e58010b0 	str	r1, [r0, #176]	; 0xb0
    82f0:	e58010b4 	str	r1, [r0, #180]	; 0xb4
    82f4:	e58010b8 	str	r1, [r0, #184]	; 0xb8
    82f8:	e58010bc 	str	r1, [r0, #188]	; 0xbc
    82fc:	e58010c0 	str	r1, [r0, #192]	; 0xc0
    8300:	e58010c4 	str	r1, [r0, #196]	; 0xc4
    8304:	e2800c05 	add	r0, r0, #1280	; 0x500
    8308:	e5801000 	str	r1, [r0]
    830c:	e5801004 	str	r1, [r0, #4]
    8310:	e5801020 	str	r1, [r0, #32]
    8314:	e5801024 	str	r1, [r0, #36]	; 0x24
    8318:	e5801038 	str	r1, [r0, #56]	; 0x38
    831c:	e580103c 	str	r1, [r0, #60]	; 0x3c
    8320:	e5801040 	str	r1, [r0, #64]	; 0x40
    8324:	e5801044 	str	r1, [r0, #68]	; 0x44
    8328:	e5801048 	str	r1, [r0, #72]	; 0x48
    832c:	e580104c 	str	r1, [r0, #76]	; 0x4c
    8330:	e5801078 	str	r1, [r0, #120]	; 0x78
    8334:	e580107c 	str	r1, [r0, #124]	; 0x7c
    8338:	e5801080 	str	r1, [r0, #128]	; 0x80
    833c:	e5801084 	str	r1, [r0, #132]	; 0x84
    8340:	e5801088 	str	r1, [r0, #136]	; 0x88
    8344:	e580108c 	str	r1, [r0, #140]	; 0x8c
    8348:	e58010a8 	str	r1, [r0, #168]	; 0xa8
    834c:	e58010ac 	str	r1, [r0, #172]	; 0xac
    8350:	e58010b0 	str	r1, [r0, #176]	; 0xb0
    8354:	e58010b4 	str	r1, [r0, #180]	; 0xb4
    8358:	e58010b8 	str	r1, [r0, #184]	; 0xb8
    835c:	e58010bc 	str	r1, [r0, #188]	; 0xbc
    8360:	e58010c0 	str	r1, [r0, #192]	; 0xc0
    8364:	e58010c4 	str	r1, [r0, #196]	; 0xc4
    8368:	e2800c05 	add	r0, r0, #1280	; 0x500
    836c:	e5801000 	str	r1, [r0]
    8370:	e5801004 	str	r1, [r0, #4]
    8374:	e5801020 	str	r1, [r0, #32]
    8378:	e5801024 	str	r1, [r0, #36]	; 0x24
    837c:	e5801038 	str	r1, [r0, #56]	; 0x38
    8380:	e580103c 	str	r1, [r0, #60]	; 0x3c
    8384:	e5801040 	str	r1, [r0, #64]	; 0x40
    8388:	e5801044 	str	r1, [r0, #68]	; 0x44
    838c:	e5801048 	str	r1, [r0, #72]	; 0x48
    8390:	e580104c 	str	r1, [r0, #76]	; 0x4c
    8394:	e5801078 	str	r1, [r0, #120]	; 0x78
    8398:	e580107c 	str	r1, [r0, #124]	; 0x7c
    839c:	e5801080 	str	r1, [r0, #128]	; 0x80
    83a0:	e5801084 	str	r1, [r0, #132]	; 0x84
    83a4:	e5801088 	str	r1, [r0, #136]	; 0x88
    83a8:	e580108c 	str	r1, [r0, #140]	; 0x8c
    83ac:	e58010a8 	str	r1, [r0, #168]	; 0xa8
    83b0:	e58010ac 	str	r1, [r0, #172]	; 0xac
    83b4:	e58010b0 	str	r1, [r0, #176]	; 0xb0
    83b8:	e58010b4 	str	r1, [r0, #180]	; 0xb4
    83bc:	e58010b8 	str	r1, [r0, #184]	; 0xb8
    83c0:	e58010bc 	str	r1, [r0, #188]	; 0xbc
    83c4:	e58010c0 	str	r1, [r0, #192]	; 0xc0
    83c8:	e58010c4 	str	r1, [r0, #196]	; 0xc4
    83cc:	e2800c05 	add	r0, r0, #1280	; 0x500
    83d0:	e5801000 	str	r1, [r0]
    83d4:	e5801004 	str	r1, [r0, #4]
    83d8:	e5801020 	str	r1, [r0, #32]
    83dc:	e5801024 	str	r1, [r0, #36]	; 0x24
    83e0:	e5801038 	str	r1, [r0, #56]	; 0x38
    83e4:	e580103c 	str	r1, [r0, #60]	; 0x3c
    83e8:	e5801040 	str	r1, [r0, #64]	; 0x40
    83ec:	e5801044 	str	r1, [r0, #68]	; 0x44
    83f0:	e5801048 	str	r1, [r0, #72]	; 0x48
    83f4:	e580104c 	str	r1, [r0, #76]	; 0x4c
    83f8:	e5801078 	str	r1, [r0, #120]	; 0x78
    83fc:	e580107c 	str	r1, [r0, #124]	; 0x7c
    8400:	e5801080 	str	r1, [r0, #128]	; 0x80
    8404:	e5801084 	str	r1, [r0, #132]	; 0x84
    8408:	e5801088 	str	r1, [r0, #136]	; 0x88
    840c:	e580108c 	str	r1, [r0, #140]	; 0x8c
    8410:	e58010a8 	str	r1, [r0, #168]	; 0xa8
    8414:	e58010ac 	str	r1, [r0, #172]	; 0xac
    8418:	e58010b0 	str	r1, [r0, #176]	; 0xb0
    841c:	e58010b4 	str	r1, [r0, #180]	; 0xb4
    8420:	e58010b8 	str	r1, [r0, #184]	; 0xb8
    8424:	e58010bc 	str	r1, [r0, #188]	; 0xbc
    8428:	e58010c0 	str	r1, [r0, #192]	; 0xc0
    842c:	e58010c4 	str	r1, [r0, #196]	; 0xc4
    8430:	e2800c05 	add	r0, r0, #1280	; 0x500
    8434:	e5801000 	str	r1, [r0]
    8438:	e5801004 	str	r1, [r0, #4]
    843c:	e5801020 	str	r1, [r0, #32]
    8440:	e5801024 	str	r1, [r0, #36]	; 0x24
    8444:	e5801038 	str	r1, [r0, #56]	; 0x38
    8448:	e580103c 	str	r1, [r0, #60]	; 0x3c
    844c:	e5801040 	str	r1, [r0, #64]	; 0x40
    8450:	e5801044 	str	r1, [r0, #68]	; 0x44
    8454:	e5801048 	str	r1, [r0, #72]	; 0x48
    8458:	e580104c 	str	r1, [r0, #76]	; 0x4c
    845c:	e5801078 	str	r1, [r0, #120]	; 0x78
    8460:	e580107c 	str	r1, [r0, #124]	; 0x7c
    8464:	e5801080 	str	r1, [r0, #128]	; 0x80
    8468:	e5801084 	str	r1, [r0, #132]	; 0x84
    846c:	e5801088 	str	r1, [r0, #136]	; 0x88
    8470:	e580108c 	str	r1, [r0, #140]	; 0x8c
    8474:	e58010a8 	str	r1, [r0, #168]	; 0xa8
    8478:	e58010ac 	str	r1, [r0, #172]	; 0xac
    847c:	e58010b0 	str	r1, [r0, #176]	; 0xb0
    8480:	e58010b4 	str	r1, [r0, #180]	; 0xb4
    8484:	e58010b8 	str	r1, [r0, #184]	; 0xb8
    8488:	e58010bc 	str	r1, [r0, #188]	; 0xbc
    848c:	e58010c0 	str	r1, [r0, #192]	; 0xc0
    8490:	e58010c4 	str	r1, [r0, #196]	; 0xc4
    8494:	e2800c05 	add	r0, r0, #1280	; 0x500
    8498:	e5801000 	str	r1, [r0]
    849c:	e5801004 	str	r1, [r0, #4]
    84a0:	e5801020 	str	r1, [r0, #32]
    84a4:	e5801024 	str	r1, [r0, #36]	; 0x24
    84a8:	e5801038 	str	r1, [r0, #56]	; 0x38
    84ac:	e580103c 	str	r1, [r0, #60]	; 0x3c
    84b0:	e5801040 	str	r1, [r0, #64]	; 0x40
    84b4:	e5801044 	str	r1, [r0, #68]	; 0x44
    84b8:	e5801048 	str	r1, [r0, #72]	; 0x48
    84bc:	e580104c 	str	r1, [r0, #76]	; 0x4c
    84c0:	e5801078 	str	r1, [r0, #120]	; 0x78
    84c4:	e580107c 	str	r1, [r0, #124]	; 0x7c
    84c8:	e5801080 	str	r1, [r0, #128]	; 0x80
    84cc:	e5801084 	str	r1, [r0, #132]	; 0x84
    84d0:	e5801088 	str	r1, [r0, #136]	; 0x88
    84d4:	e580108c 	str	r1, [r0, #140]	; 0x8c
    84d8:	e58010a8 	str	r1, [r0, #168]	; 0xa8
    84dc:	e58010ac 	str	r1, [r0, #172]	; 0xac
    84e0:	e58010b0 	str	r1, [r0, #176]	; 0xb0
    84e4:	e58010b4 	str	r1, [r0, #180]	; 0xb4
    84e8:	e58010b8 	str	r1, [r0, #184]	; 0xb8
    84ec:	e58010bc 	str	r1, [r0, #188]	; 0xbc
    84f0:	e58010c0 	str	r1, [r0, #192]	; 0xc0
    84f4:	e58010c4 	str	r1, [r0, #196]	; 0xc4
    84f8:	e2800c05 	add	r0, r0, #1280	; 0x500
    84fc:	e5801000 	str	r1, [r0]
    8500:	e5801004 	str	r1, [r0, #4]
    8504:	e5801020 	str	r1, [r0, #32]
    8508:	e5801024 	str	r1, [r0, #36]	; 0x24
    850c:	e5801038 	str	r1, [r0, #56]	; 0x38
    8510:	e580103c 	str	r1, [r0, #60]	; 0x3c
    8514:	e5801040 	str	r1, [r0, #64]	; 0x40
    8518:	e5801044 	str	r1, [r0, #68]	; 0x44
    851c:	e5801048 	str	r1, [r0, #72]	; 0x48
    8520:	e580104c 	str	r1, [r0, #76]	; 0x4c
    8524:	e5801078 	str	r1, [r0, #120]	; 0x78
    8528:	e580107c 	str	r1, [r0, #124]	; 0x7c
    852c:	e5801080 	str	r1, [r0, #128]	; 0x80
    8530:	e5801084 	str	r1, [r0, #132]	; 0x84
    8534:	e5801088 	str	r1, [r0, #136]	; 0x88
    8538:	e580108c 	str	r1, [r0, #140]	; 0x8c
    853c:	e58010a8 	str	r1, [r0, #168]	; 0xa8
    8540:	e58010ac 	str	r1, [r0, #172]	; 0xac
    8544:	e58010b0 	str	r1, [r0, #176]	; 0xb0
    8548:	e58010b4 	str	r1, [r0, #180]	; 0xb4
    854c:	e58010b8 	str	r1, [r0, #184]	; 0xb8
    8550:	e58010bc 	str	r1, [r0, #188]	; 0xbc
    8554:	e58010c0 	str	r1, [r0, #192]	; 0xc0
    8558:	e58010c4 	str	r1, [r0, #196]	; 0xc4
    855c:	e2800c05 	add	r0, r0, #1280	; 0x500
    8560:	e5801000 	str	r1, [r0]
    8564:	e5801004 	str	r1, [r0, #4]
    8568:	e5801008 	str	r1, [r0, #8]
    856c:	e580100c 	str	r1, [r0, #12]
    8570:	e5801020 	str	r1, [r0, #32]
    8574:	e5801024 	str	r1, [r0, #36]	; 0x24
    8578:	e5801030 	str	r1, [r0, #48]	; 0x30
    857c:	e5801034 	str	r1, [r0, #52]	; 0x34
    8580:	e5801050 	str	r1, [r0, #80]	; 0x50
    8584:	e5801054 	str	r1, [r0, #84]	; 0x54
    8588:	e5801070 	str	r1, [r0, #112]	; 0x70
    858c:	e5801074 	str	r1, [r0, #116]	; 0x74
    8590:	e5801090 	str	r1, [r0, #144]	; 0x90
    8594:	e5801094 	str	r1, [r0, #148]	; 0x94
    8598:	e58010a0 	str	r1, [r0, #160]	; 0xa0
    859c:	e58010a4 	str	r1, [r0, #164]	; 0xa4
    85a0:	e2800c05 	add	r0, r0, #1280	; 0x500
    85a4:	e5801000 	str	r1, [r0]
    85a8:	e5801004 	str	r1, [r0, #4]
    85ac:	e5801008 	str	r1, [r0, #8]
    85b0:	e580100c 	str	r1, [r0, #12]
    85b4:	e5801020 	str	r1, [r0, #32]
    85b8:	e5801024 	str	r1, [r0, #36]	; 0x24
    85bc:	e5801030 	str	r1, [r0, #48]	; 0x30
    85c0:	e5801034 	str	r1, [r0, #52]	; 0x34
    85c4:	e5801050 	str	r1, [r0, #80]	; 0x50
    85c8:	e5801054 	str	r1, [r0, #84]	; 0x54
    85cc:	e5801070 	str	r1, [r0, #112]	; 0x70
    85d0:	e5801074 	str	r1, [r0, #116]	; 0x74
    85d4:	e5801090 	str	r1, [r0, #144]	; 0x90
    85d8:	e5801094 	str	r1, [r0, #148]	; 0x94
    85dc:	e58010a0 	str	r1, [r0, #160]	; 0xa0
    85e0:	e58010a4 	str	r1, [r0, #164]	; 0xa4
    85e4:	e2800c05 	add	r0, r0, #1280	; 0x500
    85e8:	e5801000 	str	r1, [r0]
    85ec:	e5801004 	str	r1, [r0, #4]
    85f0:	e5801008 	str	r1, [r0, #8]
    85f4:	e580100c 	str	r1, [r0, #12]
    85f8:	e5801020 	str	r1, [r0, #32]
    85fc:	e5801024 	str	r1, [r0, #36]	; 0x24
    8600:	e5801030 	str	r1, [r0, #48]	; 0x30
    8604:	e5801034 	str	r1, [r0, #52]	; 0x34
    8608:	e5801050 	str	r1, [r0, #80]	; 0x50
    860c:	e5801054 	str	r1, [r0, #84]	; 0x54
    8610:	e5801070 	str	r1, [r0, #112]	; 0x70
    8614:	e5801074 	str	r1, [r0, #116]	; 0x74
    8618:	e5801090 	str	r1, [r0, #144]	; 0x90
    861c:	e5801094 	str	r1, [r0, #148]	; 0x94
    8620:	e58010a0 	str	r1, [r0, #160]	; 0xa0
    8624:	e58010a4 	str	r1, [r0, #164]	; 0xa4
    8628:	e2800c05 	add	r0, r0, #1280	; 0x500
    862c:	e5801000 	str	r1, [r0]
    8630:	e5801004 	str	r1, [r0, #4]
    8634:	e5801008 	str	r1, [r0, #8]
    8638:	e580100c 	str	r1, [r0, #12]
    863c:	e5801020 	str	r1, [r0, #32]
    8640:	e5801024 	str	r1, [r0, #36]	; 0x24
    8644:	e5801030 	str	r1, [r0, #48]	; 0x30
    8648:	e5801034 	str	r1, [r0, #52]	; 0x34
    864c:	e5801050 	str	r1, [r0, #80]	; 0x50
    8650:	e5801054 	str	r1, [r0, #84]	; 0x54
    8654:	e5801070 	str	r1, [r0, #112]	; 0x70
    8658:	e5801074 	str	r1, [r0, #116]	; 0x74
    865c:	e5801090 	str	r1, [r0, #144]	; 0x90
    8660:	e5801094 	str	r1, [r0, #148]	; 0x94
    8664:	e58010a0 	str	r1, [r0, #160]	; 0xa0
    8668:	e58010a4 	str	r1, [r0, #164]	; 0xa4
    866c:	e2800c05 	add	r0, r0, #1280	; 0x500
    8670:	e5801000 	str	r1, [r0]
    8674:	e5801004 	str	r1, [r0, #4]
    8678:	e5801008 	str	r1, [r0, #8]
    867c:	e580100c 	str	r1, [r0, #12]
    8680:	e5801020 	str	r1, [r0, #32]
    8684:	e5801024 	str	r1, [r0, #36]	; 0x24
    8688:	e5801030 	str	r1, [r0, #48]	; 0x30
    868c:	e5801034 	str	r1, [r0, #52]	; 0x34
    8690:	e5801050 	str	r1, [r0, #80]	; 0x50
    8694:	e5801054 	str	r1, [r0, #84]	; 0x54
    8698:	e5801070 	str	r1, [r0, #112]	; 0x70
    869c:	e5801074 	str	r1, [r0, #116]	; 0x74
    86a0:	e5801090 	str	r1, [r0, #144]	; 0x90
    86a4:	e5801094 	str	r1, [r0, #148]	; 0x94
    86a8:	e58010a0 	str	r1, [r0, #160]	; 0xa0
    86ac:	e58010a4 	str	r1, [r0, #164]	; 0xa4
    86b0:	e2800c05 	add	r0, r0, #1280	; 0x500
    86b4:	e5801000 	str	r1, [r0]
    86b8:	e5801004 	str	r1, [r0, #4]
    86bc:	e5801008 	str	r1, [r0, #8]
    86c0:	e580100c 	str	r1, [r0, #12]
    86c4:	e5801020 	str	r1, [r0, #32]
    86c8:	e5801024 	str	r1, [r0, #36]	; 0x24
    86cc:	e5801030 	str	r1, [r0, #48]	; 0x30
    86d0:	e5801034 	str	r1, [r0, #52]	; 0x34
    86d4:	e5801050 	str	r1, [r0, #80]	; 0x50
    86d8:	e5801054 	str	r1, [r0, #84]	; 0x54
    86dc:	e5801070 	str	r1, [r0, #112]	; 0x70
    86e0:	e5801074 	str	r1, [r0, #116]	; 0x74
    86e4:	e5801090 	str	r1, [r0, #144]	; 0x90
    86e8:	e5801094 	str	r1, [r0, #148]	; 0x94
    86ec:	e58010a0 	str	r1, [r0, #160]	; 0xa0
    86f0:	e58010a4 	str	r1, [r0, #164]	; 0xa4
    86f4:	e2800c05 	add	r0, r0, #1280	; 0x500
    86f8:	e5801000 	str	r1, [r0]
    86fc:	e5801004 	str	r1, [r0, #4]
    8700:	e5801008 	str	r1, [r0, #8]
    8704:	e580100c 	str	r1, [r0, #12]
    8708:	e5801020 	str	r1, [r0, #32]
    870c:	e5801024 	str	r1, [r0, #36]	; 0x24
    8710:	e5801030 	str	r1, [r0, #48]	; 0x30
    8714:	e5801034 	str	r1, [r0, #52]	; 0x34
    8718:	e5801050 	str	r1, [r0, #80]	; 0x50
    871c:	e5801054 	str	r1, [r0, #84]	; 0x54
    8720:	e5801070 	str	r1, [r0, #112]	; 0x70
    8724:	e5801074 	str	r1, [r0, #116]	; 0x74
    8728:	e5801090 	str	r1, [r0, #144]	; 0x90
    872c:	e5801094 	str	r1, [r0, #148]	; 0x94
    8730:	e58010a0 	str	r1, [r0, #160]	; 0xa0
    8734:	e58010a4 	str	r1, [r0, #164]	; 0xa4
    8738:	e2800c05 	add	r0, r0, #1280	; 0x500
    873c:	e5801000 	str	r1, [r0]
    8740:	e5801004 	str	r1, [r0, #4]
    8744:	e5801008 	str	r1, [r0, #8]
    8748:	e580100c 	str	r1, [r0, #12]
    874c:	e5801020 	str	r1, [r0, #32]
    8750:	e5801024 	str	r1, [r0, #36]	; 0x24
    8754:	e5801030 	str	r1, [r0, #48]	; 0x30
    8758:	e5801034 	str	r1, [r0, #52]	; 0x34
    875c:	e5801050 	str	r1, [r0, #80]	; 0x50
    8760:	e5801054 	str	r1, [r0, #84]	; 0x54
    8764:	e5801070 	str	r1, [r0, #112]	; 0x70
    8768:	e5801074 	str	r1, [r0, #116]	; 0x74
    876c:	e5801090 	str	r1, [r0, #144]	; 0x90
    8770:	e5801094 	str	r1, [r0, #148]	; 0x94
    8774:	e58010a0 	str	r1, [r0, #160]	; 0xa0
    8778:	e58010a4 	str	r1, [r0, #164]	; 0xa4
    877c:	e2800c05 	add	r0, r0, #1280	; 0x500
    8780:	e5801000 	str	r1, [r0]
    8784:	e5801004 	str	r1, [r0, #4]
    8788:	e5801010 	str	r1, [r0, #16]
    878c:	e5801014 	str	r1, [r0, #20]
    8790:	e5801020 	str	r1, [r0, #32]
    8794:	e5801024 	str	r1, [r0, #36]	; 0x24
    8798:	e5801030 	str	r1, [r0, #48]	; 0x30
    879c:	e5801034 	str	r1, [r0, #52]	; 0x34
    87a0:	e5801050 	str	r1, [r0, #80]	; 0x50
    87a4:	e5801054 	str	r1, [r0, #84]	; 0x54
    87a8:	e5801070 	str	r1, [r0, #112]	; 0x70
    87ac:	e5801074 	str	r1, [r0, #116]	; 0x74
    87b0:	e5801090 	str	r1, [r0, #144]	; 0x90
    87b4:	e5801094 	str	r1, [r0, #148]	; 0x94
    87b8:	e58010a8 	str	r1, [r0, #168]	; 0xa8
    87bc:	e58010ac 	str	r1, [r0, #172]	; 0xac
    87c0:	e58010b0 	str	r1, [r0, #176]	; 0xb0
    87c4:	e58010b4 	str	r1, [r0, #180]	; 0xb4
    87c8:	e58010b8 	str	r1, [r0, #184]	; 0xb8
    87cc:	e58010bc 	str	r1, [r0, #188]	; 0xbc
    87d0:	e2800c05 	add	r0, r0, #1280	; 0x500
    87d4:	e5801000 	str	r1, [r0]
    87d8:	e5801004 	str	r1, [r0, #4]
    87dc:	e5801010 	str	r1, [r0, #16]
    87e0:	e5801014 	str	r1, [r0, #20]
    87e4:	e5801020 	str	r1, [r0, #32]
    87e8:	e5801024 	str	r1, [r0, #36]	; 0x24
    87ec:	e5801030 	str	r1, [r0, #48]	; 0x30
    87f0:	e5801034 	str	r1, [r0, #52]	; 0x34
    87f4:	e5801050 	str	r1, [r0, #80]	; 0x50
    87f8:	e5801054 	str	r1, [r0, #84]	; 0x54
    87fc:	e5801070 	str	r1, [r0, #112]	; 0x70
    8800:	e5801074 	str	r1, [r0, #116]	; 0x74
    8804:	e5801090 	str	r1, [r0, #144]	; 0x90
    8808:	e5801094 	str	r1, [r0, #148]	; 0x94
    880c:	e58010a8 	str	r1, [r0, #168]	; 0xa8
    8810:	e58010ac 	str	r1, [r0, #172]	; 0xac
    8814:	e58010b0 	str	r1, [r0, #176]	; 0xb0
    8818:	e58010b4 	str	r1, [r0, #180]	; 0xb4
    881c:	e58010b8 	str	r1, [r0, #184]	; 0xb8
    8820:	e58010bc 	str	r1, [r0, #188]	; 0xbc
    8824:	e2800c05 	add	r0, r0, #1280	; 0x500
    8828:	e5801000 	str	r1, [r0]
    882c:	e5801004 	str	r1, [r0, #4]
    8830:	e5801010 	str	r1, [r0, #16]
    8834:	e5801014 	str	r1, [r0, #20]
    8838:	e5801020 	str	r1, [r0, #32]
    883c:	e5801024 	str	r1, [r0, #36]	; 0x24
    8840:	e5801030 	str	r1, [r0, #48]	; 0x30
    8844:	e5801034 	str	r1, [r0, #52]	; 0x34
    8848:	e5801050 	str	r1, [r0, #80]	; 0x50
    884c:	e5801054 	str	r1, [r0, #84]	; 0x54
    8850:	e5801070 	str	r1, [r0, #112]	; 0x70
    8854:	e5801074 	str	r1, [r0, #116]	; 0x74
    8858:	e5801090 	str	r1, [r0, #144]	; 0x90
    885c:	e5801094 	str	r1, [r0, #148]	; 0x94
    8860:	e58010a8 	str	r1, [r0, #168]	; 0xa8
    8864:	e58010ac 	str	r1, [r0, #172]	; 0xac
    8868:	e58010b0 	str	r1, [r0, #176]	; 0xb0
    886c:	e58010b4 	str	r1, [r0, #180]	; 0xb4
    8870:	e58010b8 	str	r1, [r0, #184]	; 0xb8
    8874:	e58010bc 	str	r1, [r0, #188]	; 0xbc
    8878:	e2800c05 	add	r0, r0, #1280	; 0x500
    887c:	e5801000 	str	r1, [r0]
    8880:	e5801004 	str	r1, [r0, #4]
    8884:	e5801010 	str	r1, [r0, #16]
    8888:	e5801014 	str	r1, [r0, #20]
    888c:	e5801020 	str	r1, [r0, #32]
    8890:	e5801024 	str	r1, [r0, #36]	; 0x24
    8894:	e5801030 	str	r1, [r0, #48]	; 0x30
    8898:	e5801034 	str	r1, [r0, #52]	; 0x34
    889c:	e5801050 	str	r1, [r0, #80]	; 0x50
    88a0:	e5801054 	str	r1, [r0, #84]	; 0x54
    88a4:	e5801070 	str	r1, [r0, #112]	; 0x70
    88a8:	e5801074 	str	r1, [r0, #116]	; 0x74
    88ac:	e5801090 	str	r1, [r0, #144]	; 0x90
    88b0:	e5801094 	str	r1, [r0, #148]	; 0x94
    88b4:	e58010a8 	str	r1, [r0, #168]	; 0xa8
    88b8:	e58010ac 	str	r1, [r0, #172]	; 0xac
    88bc:	e58010b0 	str	r1, [r0, #176]	; 0xb0
    88c0:	e58010b4 	str	r1, [r0, #180]	; 0xb4
    88c4:	e58010b8 	str	r1, [r0, #184]	; 0xb8
    88c8:	e58010bc 	str	r1, [r0, #188]	; 0xbc
    88cc:	e2800c05 	add	r0, r0, #1280	; 0x500
    88d0:	e5801000 	str	r1, [r0]
    88d4:	e5801004 	str	r1, [r0, #4]
    88d8:	e5801010 	str	r1, [r0, #16]
    88dc:	e5801014 	str	r1, [r0, #20]
    88e0:	e5801020 	str	r1, [r0, #32]
    88e4:	e5801024 	str	r1, [r0, #36]	; 0x24
    88e8:	e5801030 	str	r1, [r0, #48]	; 0x30
    88ec:	e5801034 	str	r1, [r0, #52]	; 0x34
    88f0:	e5801050 	str	r1, [r0, #80]	; 0x50
    88f4:	e5801054 	str	r1, [r0, #84]	; 0x54
    88f8:	e5801070 	str	r1, [r0, #112]	; 0x70
    88fc:	e5801074 	str	r1, [r0, #116]	; 0x74
    8900:	e5801090 	str	r1, [r0, #144]	; 0x90
    8904:	e5801094 	str	r1, [r0, #148]	; 0x94
    8908:	e58010a8 	str	r1, [r0, #168]	; 0xa8
    890c:	e58010ac 	str	r1, [r0, #172]	; 0xac
    8910:	e58010b0 	str	r1, [r0, #176]	; 0xb0
    8914:	e58010b4 	str	r1, [r0, #180]	; 0xb4
    8918:	e58010b8 	str	r1, [r0, #184]	; 0xb8
    891c:	e58010bc 	str	r1, [r0, #188]	; 0xbc
    8920:	e2800c05 	add	r0, r0, #1280	; 0x500
    8924:	e5801000 	str	r1, [r0]
    8928:	e5801004 	str	r1, [r0, #4]
    892c:	e5801010 	str	r1, [r0, #16]
    8930:	e5801014 	str	r1, [r0, #20]
    8934:	e5801020 	str	r1, [r0, #32]
    8938:	e5801024 	str	r1, [r0, #36]	; 0x24
    893c:	e5801030 	str	r1, [r0, #48]	; 0x30
    8940:	e5801034 	str	r1, [r0, #52]	; 0x34
    8944:	e5801050 	str	r1, [r0, #80]	; 0x50
    8948:	e5801054 	str	r1, [r0, #84]	; 0x54
    894c:	e5801070 	str	r1, [r0, #112]	; 0x70
    8950:	e5801074 	str	r1, [r0, #116]	; 0x74
    8954:	e5801090 	str	r1, [r0, #144]	; 0x90
    8958:	e5801094 	str	r1, [r0, #148]	; 0x94
    895c:	e58010a8 	str	r1, [r0, #168]	; 0xa8
    8960:	e58010ac 	str	r1, [r0, #172]	; 0xac
    8964:	e58010b0 	str	r1, [r0, #176]	; 0xb0
    8968:	e58010b4 	str	r1, [r0, #180]	; 0xb4
    896c:	e58010b8 	str	r1, [r0, #184]	; 0xb8
    8970:	e58010bc 	str	r1, [r0, #188]	; 0xbc
    8974:	e2800c05 	add	r0, r0, #1280	; 0x500
    8978:	e5801000 	str	r1, [r0]
    897c:	e5801004 	str	r1, [r0, #4]
    8980:	e5801010 	str	r1, [r0, #16]
    8984:	e5801014 	str	r1, [r0, #20]
    8988:	e5801020 	str	r1, [r0, #32]
    898c:	e5801024 	str	r1, [r0, #36]	; 0x24
    8990:	e5801030 	str	r1, [r0, #48]	; 0x30
    8994:	e5801034 	str	r1, [r0, #52]	; 0x34
    8998:	e5801050 	str	r1, [r0, #80]	; 0x50
    899c:	e5801054 	str	r1, [r0, #84]	; 0x54
    89a0:	e5801070 	str	r1, [r0, #112]	; 0x70
    89a4:	e5801074 	str	r1, [r0, #116]	; 0x74
    89a8:	e5801090 	str	r1, [r0, #144]	; 0x90
    89ac:	e5801094 	str	r1, [r0, #148]	; 0x94
    89b0:	e58010a8 	str	r1, [r0, #168]	; 0xa8
    89b4:	e58010ac 	str	r1, [r0, #172]	; 0xac
    89b8:	e58010b0 	str	r1, [r0, #176]	; 0xb0
    89bc:	e58010b4 	str	r1, [r0, #180]	; 0xb4
    89c0:	e58010b8 	str	r1, [r0, #184]	; 0xb8
    89c4:	e58010bc 	str	r1, [r0, #188]	; 0xbc
    89c8:	e2800c05 	add	r0, r0, #1280	; 0x500
    89cc:	e5801000 	str	r1, [r0]
    89d0:	e5801004 	str	r1, [r0, #4]
    89d4:	e5801010 	str	r1, [r0, #16]
    89d8:	e5801014 	str	r1, [r0, #20]
    89dc:	e5801020 	str	r1, [r0, #32]
    89e0:	e5801024 	str	r1, [r0, #36]	; 0x24
    89e4:	e5801030 	str	r1, [r0, #48]	; 0x30
    89e8:	e5801034 	str	r1, [r0, #52]	; 0x34
    89ec:	e5801050 	str	r1, [r0, #80]	; 0x50
    89f0:	e5801054 	str	r1, [r0, #84]	; 0x54
    89f4:	e5801070 	str	r1, [r0, #112]	; 0x70
    89f8:	e5801074 	str	r1, [r0, #116]	; 0x74
    89fc:	e5801090 	str	r1, [r0, #144]	; 0x90
    8a00:	e5801094 	str	r1, [r0, #148]	; 0x94
    8a04:	e58010a8 	str	r1, [r0, #168]	; 0xa8
    8a08:	e58010ac 	str	r1, [r0, #172]	; 0xac
    8a0c:	e58010b0 	str	r1, [r0, #176]	; 0xb0
    8a10:	e58010b4 	str	r1, [r0, #180]	; 0xb4
    8a14:	e58010b8 	str	r1, [r0, #184]	; 0xb8
    8a18:	e58010bc 	str	r1, [r0, #188]	; 0xbc
    8a1c:	e2800c05 	add	r0, r0, #1280	; 0x500
    8a20:	e5801000 	str	r1, [r0]
    8a24:	e5801004 	str	r1, [r0, #4]
    8a28:	e5801018 	str	r1, [r0, #24]
    8a2c:	e580101c 	str	r1, [r0, #28]
    8a30:	e5801020 	str	r1, [r0, #32]
    8a34:	e5801024 	str	r1, [r0, #36]	; 0x24
    8a38:	e5801030 	str	r1, [r0, #48]	; 0x30
    8a3c:	e5801034 	str	r1, [r0, #52]	; 0x34
    8a40:	e5801050 	str	r1, [r0, #80]	; 0x50
    8a44:	e5801054 	str	r1, [r0, #84]	; 0x54
    8a48:	e5801070 	str	r1, [r0, #112]	; 0x70
    8a4c:	e5801074 	str	r1, [r0, #116]	; 0x74
    8a50:	e5801090 	str	r1, [r0, #144]	; 0x90
    8a54:	e5801094 	str	r1, [r0, #148]	; 0x94
    8a58:	e58010c0 	str	r1, [r0, #192]	; 0xc0
    8a5c:	e58010c4 	str	r1, [r0, #196]	; 0xc4
    8a60:	e2800c05 	add	r0, r0, #1280	; 0x500
    8a64:	e5801000 	str	r1, [r0]
    8a68:	e5801004 	str	r1, [r0, #4]
    8a6c:	e5801018 	str	r1, [r0, #24]
    8a70:	e580101c 	str	r1, [r0, #28]
    8a74:	e5801020 	str	r1, [r0, #32]
    8a78:	e5801024 	str	r1, [r0, #36]	; 0x24
    8a7c:	e5801030 	str	r1, [r0, #48]	; 0x30
    8a80:	e5801034 	str	r1, [r0, #52]	; 0x34
    8a84:	e5801050 	str	r1, [r0, #80]	; 0x50
    8a88:	e5801054 	str	r1, [r0, #84]	; 0x54
    8a8c:	e5801070 	str	r1, [r0, #112]	; 0x70
    8a90:	e5801074 	str	r1, [r0, #116]	; 0x74
    8a94:	e5801090 	str	r1, [r0, #144]	; 0x90
    8a98:	e5801094 	str	r1, [r0, #148]	; 0x94
    8a9c:	e58010c0 	str	r1, [r0, #192]	; 0xc0
    8aa0:	e58010c4 	str	r1, [r0, #196]	; 0xc4
    8aa4:	e2800c05 	add	r0, r0, #1280	; 0x500
    8aa8:	e5801000 	str	r1, [r0]
    8aac:	e5801004 	str	r1, [r0, #4]
    8ab0:	e5801018 	str	r1, [r0, #24]
    8ab4:	e580101c 	str	r1, [r0, #28]
    8ab8:	e5801020 	str	r1, [r0, #32]
    8abc:	e5801024 	str	r1, [r0, #36]	; 0x24
    8ac0:	e5801030 	str	r1, [r0, #48]	; 0x30
    8ac4:	e5801034 	str	r1, [r0, #52]	; 0x34
    8ac8:	e5801050 	str	r1, [r0, #80]	; 0x50
    8acc:	e5801054 	str	r1, [r0, #84]	; 0x54
    8ad0:	e5801070 	str	r1, [r0, #112]	; 0x70
    8ad4:	e5801074 	str	r1, [r0, #116]	; 0x74
    8ad8:	e5801090 	str	r1, [r0, #144]	; 0x90
    8adc:	e5801094 	str	r1, [r0, #148]	; 0x94
    8ae0:	e58010c0 	str	r1, [r0, #192]	; 0xc0
    8ae4:	e58010c4 	str	r1, [r0, #196]	; 0xc4
    8ae8:	e2800c05 	add	r0, r0, #1280	; 0x500
    8aec:	e5801000 	str	r1, [r0]
    8af0:	e5801004 	str	r1, [r0, #4]
    8af4:	e5801018 	str	r1, [r0, #24]
    8af8:	e580101c 	str	r1, [r0, #28]
    8afc:	e5801020 	str	r1, [r0, #32]
    8b00:	e5801024 	str	r1, [r0, #36]	; 0x24
    8b04:	e5801030 	str	r1, [r0, #48]	; 0x30
    8b08:	e5801034 	str	r1, [r0, #52]	; 0x34
    8b0c:	e5801050 	str	r1, [r0, #80]	; 0x50
    8b10:	e5801054 	str	r1, [r0, #84]	; 0x54
    8b14:	e5801070 	str	r1, [r0, #112]	; 0x70
    8b18:	e5801074 	str	r1, [r0, #116]	; 0x74
    8b1c:	e5801090 	str	r1, [r0, #144]	; 0x90
    8b20:	e5801094 	str	r1, [r0, #148]	; 0x94
    8b24:	e58010c0 	str	r1, [r0, #192]	; 0xc0
    8b28:	e58010c4 	str	r1, [r0, #196]	; 0xc4
    8b2c:	e2800c05 	add	r0, r0, #1280	; 0x500
    8b30:	e5801000 	str	r1, [r0]
    8b34:	e5801004 	str	r1, [r0, #4]
    8b38:	e5801018 	str	r1, [r0, #24]
    8b3c:	e580101c 	str	r1, [r0, #28]
    8b40:	e5801020 	str	r1, [r0, #32]
    8b44:	e5801024 	str	r1, [r0, #36]	; 0x24
    8b48:	e5801030 	str	r1, [r0, #48]	; 0x30
    8b4c:	e5801034 	str	r1, [r0, #52]	; 0x34
    8b50:	e5801050 	str	r1, [r0, #80]	; 0x50
    8b54:	e5801054 	str	r1, [r0, #84]	; 0x54
    8b58:	e5801070 	str	r1, [r0, #112]	; 0x70
    8b5c:	e5801074 	str	r1, [r0, #116]	; 0x74
    8b60:	e5801090 	str	r1, [r0, #144]	; 0x90
    8b64:	e5801094 	str	r1, [r0, #148]	; 0x94
    8b68:	e58010c0 	str	r1, [r0, #192]	; 0xc0
    8b6c:	e58010c4 	str	r1, [r0, #196]	; 0xc4
    8b70:	e2800c05 	add	r0, r0, #1280	; 0x500
    8b74:	e5801000 	str	r1, [r0]
    8b78:	e5801004 	str	r1, [r0, #4]
    8b7c:	e5801018 	str	r1, [r0, #24]
    8b80:	e580101c 	str	r1, [r0, #28]
    8b84:	e5801020 	str	r1, [r0, #32]
    8b88:	e5801024 	str	r1, [r0, #36]	; 0x24
    8b8c:	e5801030 	str	r1, [r0, #48]	; 0x30
    8b90:	e5801034 	str	r1, [r0, #52]	; 0x34
    8b94:	e5801050 	str	r1, [r0, #80]	; 0x50
    8b98:	e5801054 	str	r1, [r0, #84]	; 0x54
    8b9c:	e5801070 	str	r1, [r0, #112]	; 0x70
    8ba0:	e5801074 	str	r1, [r0, #116]	; 0x74
    8ba4:	e5801090 	str	r1, [r0, #144]	; 0x90
    8ba8:	e5801094 	str	r1, [r0, #148]	; 0x94
    8bac:	e58010c0 	str	r1, [r0, #192]	; 0xc0
    8bb0:	e58010c4 	str	r1, [r0, #196]	; 0xc4
    8bb4:	e2800c05 	add	r0, r0, #1280	; 0x500
    8bb8:	e5801000 	str	r1, [r0]
    8bbc:	e5801004 	str	r1, [r0, #4]
    8bc0:	e5801018 	str	r1, [r0, #24]
    8bc4:	e580101c 	str	r1, [r0, #28]
    8bc8:	e5801020 	str	r1, [r0, #32]
    8bcc:	e5801024 	str	r1, [r0, #36]	; 0x24
    8bd0:	e5801030 	str	r1, [r0, #48]	; 0x30
    8bd4:	e5801034 	str	r1, [r0, #52]	; 0x34
    8bd8:	e5801050 	str	r1, [r0, #80]	; 0x50
    8bdc:	e5801054 	str	r1, [r0, #84]	; 0x54
    8be0:	e5801070 	str	r1, [r0, #112]	; 0x70
    8be4:	e5801074 	str	r1, [r0, #116]	; 0x74
    8be8:	e5801090 	str	r1, [r0, #144]	; 0x90
    8bec:	e5801094 	str	r1, [r0, #148]	; 0x94
    8bf0:	e58010c0 	str	r1, [r0, #192]	; 0xc0
    8bf4:	e58010c4 	str	r1, [r0, #196]	; 0xc4
    8bf8:	e2800c05 	add	r0, r0, #1280	; 0x500
    8bfc:	e5801000 	str	r1, [r0]
    8c00:	e5801004 	str	r1, [r0, #4]
    8c04:	e5801018 	str	r1, [r0, #24]
    8c08:	e580101c 	str	r1, [r0, #28]
    8c0c:	e5801020 	str	r1, [r0, #32]
    8c10:	e5801024 	str	r1, [r0, #36]	; 0x24
    8c14:	e5801030 	str	r1, [r0, #48]	; 0x30
    8c18:	e5801034 	str	r1, [r0, #52]	; 0x34
    8c1c:	e5801050 	str	r1, [r0, #80]	; 0x50
    8c20:	e5801054 	str	r1, [r0, #84]	; 0x54
    8c24:	e5801070 	str	r1, [r0, #112]	; 0x70
    8c28:	e5801074 	str	r1, [r0, #116]	; 0x74
    8c2c:	e5801090 	str	r1, [r0, #144]	; 0x90
    8c30:	e5801094 	str	r1, [r0, #148]	; 0x94
    8c34:	e58010c0 	str	r1, [r0, #192]	; 0xc0
    8c38:	e58010c4 	str	r1, [r0, #196]	; 0xc4
    8c3c:	e2800c05 	add	r0, r0, #1280	; 0x500
    8c40:	e5801000 	str	r1, [r0]
    8c44:	e5801004 	str	r1, [r0, #4]
    8c48:	e5801020 	str	r1, [r0, #32]
    8c4c:	e5801024 	str	r1, [r0, #36]	; 0x24
    8c50:	e5801038 	str	r1, [r0, #56]	; 0x38
    8c54:	e580103c 	str	r1, [r0, #60]	; 0x3c
    8c58:	e5801040 	str	r1, [r0, #64]	; 0x40
    8c5c:	e5801044 	str	r1, [r0, #68]	; 0x44
    8c60:	e5801048 	str	r1, [r0, #72]	; 0x48
    8c64:	e580104c 	str	r1, [r0, #76]	; 0x4c
    8c68:	e5801078 	str	r1, [r0, #120]	; 0x78
    8c6c:	e580107c 	str	r1, [r0, #124]	; 0x7c
    8c70:	e5801080 	str	r1, [r0, #128]	; 0x80
    8c74:	e5801084 	str	r1, [r0, #132]	; 0x84
    8c78:	e5801088 	str	r1, [r0, #136]	; 0x88
    8c7c:	e580108c 	str	r1, [r0, #140]	; 0x8c
    8c80:	e58010a0 	str	r1, [r0, #160]	; 0xa0
    8c84:	e58010a4 	str	r1, [r0, #164]	; 0xa4
    8c88:	e58010a8 	str	r1, [r0, #168]	; 0xa8
    8c8c:	e58010ac 	str	r1, [r0, #172]	; 0xac
    8c90:	e58010b0 	str	r1, [r0, #176]	; 0xb0
    8c94:	e58010b4 	str	r1, [r0, #180]	; 0xb4
    8c98:	e58010b8 	str	r1, [r0, #184]	; 0xb8
    8c9c:	e58010bc 	str	r1, [r0, #188]	; 0xbc
    8ca0:	e2800c05 	add	r0, r0, #1280	; 0x500
    8ca4:	e5801000 	str	r1, [r0]
    8ca8:	e5801004 	str	r1, [r0, #4]
    8cac:	e5801020 	str	r1, [r0, #32]
    8cb0:	e5801024 	str	r1, [r0, #36]	; 0x24
    8cb4:	e5801038 	str	r1, [r0, #56]	; 0x38
    8cb8:	e580103c 	str	r1, [r0, #60]	; 0x3c
    8cbc:	e5801040 	str	r1, [r0, #64]	; 0x40
    8cc0:	e5801044 	str	r1, [r0, #68]	; 0x44
    8cc4:	e5801048 	str	r1, [r0, #72]	; 0x48
    8cc8:	e580104c 	str	r1, [r0, #76]	; 0x4c
    8ccc:	e5801078 	str	r1, [r0, #120]	; 0x78
    8cd0:	e580107c 	str	r1, [r0, #124]	; 0x7c
    8cd4:	e5801080 	str	r1, [r0, #128]	; 0x80
    8cd8:	e5801084 	str	r1, [r0, #132]	; 0x84
    8cdc:	e5801088 	str	r1, [r0, #136]	; 0x88
    8ce0:	e580108c 	str	r1, [r0, #140]	; 0x8c
    8ce4:	e58010a0 	str	r1, [r0, #160]	; 0xa0
    8ce8:	e58010a4 	str	r1, [r0, #164]	; 0xa4
    8cec:	e58010a8 	str	r1, [r0, #168]	; 0xa8
    8cf0:	e58010ac 	str	r1, [r0, #172]	; 0xac
    8cf4:	e58010b0 	str	r1, [r0, #176]	; 0xb0
    8cf8:	e58010b4 	str	r1, [r0, #180]	; 0xb4
    8cfc:	e58010b8 	str	r1, [r0, #184]	; 0xb8
    8d00:	e58010bc 	str	r1, [r0, #188]	; 0xbc
    8d04:	e2800c05 	add	r0, r0, #1280	; 0x500
    8d08:	e5801000 	str	r1, [r0]
    8d0c:	e5801004 	str	r1, [r0, #4]
    8d10:	e5801020 	str	r1, [r0, #32]
    8d14:	e5801024 	str	r1, [r0, #36]	; 0x24
    8d18:	e5801038 	str	r1, [r0, #56]	; 0x38
    8d1c:	e580103c 	str	r1, [r0, #60]	; 0x3c
    8d20:	e5801040 	str	r1, [r0, #64]	; 0x40
    8d24:	e5801044 	str	r1, [r0, #68]	; 0x44
    8d28:	e5801048 	str	r1, [r0, #72]	; 0x48
    8d2c:	e580104c 	str	r1, [r0, #76]	; 0x4c
    8d30:	e5801078 	str	r1, [r0, #120]	; 0x78
    8d34:	e580107c 	str	r1, [r0, #124]	; 0x7c
    8d38:	e5801080 	str	r1, [r0, #128]	; 0x80
    8d3c:	e5801084 	str	r1, [r0, #132]	; 0x84
    8d40:	e5801088 	str	r1, [r0, #136]	; 0x88
    8d44:	e580108c 	str	r1, [r0, #140]	; 0x8c
    8d48:	e58010a0 	str	r1, [r0, #160]	; 0xa0
    8d4c:	e58010a4 	str	r1, [r0, #164]	; 0xa4
    8d50:	e58010a8 	str	r1, [r0, #168]	; 0xa8
    8d54:	e58010ac 	str	r1, [r0, #172]	; 0xac
    8d58:	e58010b0 	str	r1, [r0, #176]	; 0xb0
    8d5c:	e58010b4 	str	r1, [r0, #180]	; 0xb4
    8d60:	e58010b8 	str	r1, [r0, #184]	; 0xb8
    8d64:	e58010bc 	str	r1, [r0, #188]	; 0xbc
    8d68:	e2800c05 	add	r0, r0, #1280	; 0x500
    8d6c:	e5801000 	str	r1, [r0]
    8d70:	e5801004 	str	r1, [r0, #4]
    8d74:	e5801020 	str	r1, [r0, #32]
    8d78:	e5801024 	str	r1, [r0, #36]	; 0x24
    8d7c:	e5801038 	str	r1, [r0, #56]	; 0x38
    8d80:	e580103c 	str	r1, [r0, #60]	; 0x3c
    8d84:	e5801040 	str	r1, [r0, #64]	; 0x40
    8d88:	e5801044 	str	r1, [r0, #68]	; 0x44
    8d8c:	e5801048 	str	r1, [r0, #72]	; 0x48
    8d90:	e580104c 	str	r1, [r0, #76]	; 0x4c
    8d94:	e5801078 	str	r1, [r0, #120]	; 0x78
    8d98:	e580107c 	str	r1, [r0, #124]	; 0x7c
    8d9c:	e5801080 	str	r1, [r0, #128]	; 0x80
    8da0:	e5801084 	str	r1, [r0, #132]	; 0x84
    8da4:	e5801088 	str	r1, [r0, #136]	; 0x88
    8da8:	e580108c 	str	r1, [r0, #140]	; 0x8c
    8dac:	e58010a0 	str	r1, [r0, #160]	; 0xa0
    8db0:	e58010a4 	str	r1, [r0, #164]	; 0xa4
    8db4:	e58010a8 	str	r1, [r0, #168]	; 0xa8
    8db8:	e58010ac 	str	r1, [r0, #172]	; 0xac
    8dbc:	e58010b0 	str	r1, [r0, #176]	; 0xb0
    8dc0:	e58010b4 	str	r1, [r0, #180]	; 0xb4
    8dc4:	e58010b8 	str	r1, [r0, #184]	; 0xb8
    8dc8:	e58010bc 	str	r1, [r0, #188]	; 0xbc
    8dcc:	e2800c05 	add	r0, r0, #1280	; 0x500
    8dd0:	e5801000 	str	r1, [r0]
    8dd4:	e5801004 	str	r1, [r0, #4]
    8dd8:	e5801020 	str	r1, [r0, #32]
    8ddc:	e5801024 	str	r1, [r0, #36]	; 0x24
    8de0:	e5801038 	str	r1, [r0, #56]	; 0x38
    8de4:	e580103c 	str	r1, [r0, #60]	; 0x3c
    8de8:	e5801040 	str	r1, [r0, #64]	; 0x40
    8dec:	e5801044 	str	r1, [r0, #68]	; 0x44
    8df0:	e5801048 	str	r1, [r0, #72]	; 0x48
    8df4:	e580104c 	str	r1, [r0, #76]	; 0x4c
    8df8:	e5801078 	str	r1, [r0, #120]	; 0x78
    8dfc:	e580107c 	str	r1, [r0, #124]	; 0x7c
    8e00:	e5801080 	str	r1, [r0, #128]	; 0x80
    8e04:	e5801084 	str	r1, [r0, #132]	; 0x84
    8e08:	e5801088 	str	r1, [r0, #136]	; 0x88
    8e0c:	e580108c 	str	r1, [r0, #140]	; 0x8c
    8e10:	e58010a0 	str	r1, [r0, #160]	; 0xa0
    8e14:	e58010a4 	str	r1, [r0, #164]	; 0xa4
    8e18:	e58010a8 	str	r1, [r0, #168]	; 0xa8
    8e1c:	e58010ac 	str	r1, [r0, #172]	; 0xac
    8e20:	e58010b0 	str	r1, [r0, #176]	; 0xb0
    8e24:	e58010b4 	str	r1, [r0, #180]	; 0xb4
    8e28:	e58010b8 	str	r1, [r0, #184]	; 0xb8
    8e2c:	e58010bc 	str	r1, [r0, #188]	; 0xbc
    8e30:	e2800c05 	add	r0, r0, #1280	; 0x500
    8e34:	e5801000 	str	r1, [r0]
    8e38:	e5801004 	str	r1, [r0, #4]
    8e3c:	e5801020 	str	r1, [r0, #32]
    8e40:	e5801024 	str	r1, [r0, #36]	; 0x24
    8e44:	e5801038 	str	r1, [r0, #56]	; 0x38
    8e48:	e580103c 	str	r1, [r0, #60]	; 0x3c
    8e4c:	e5801040 	str	r1, [r0, #64]	; 0x40
    8e50:	e5801044 	str	r1, [r0, #68]	; 0x44
    8e54:	e5801048 	str	r1, [r0, #72]	; 0x48
    8e58:	e580104c 	str	r1, [r0, #76]	; 0x4c
    8e5c:	e5801078 	str	r1, [r0, #120]	; 0x78
    8e60:	e580107c 	str	r1, [r0, #124]	; 0x7c
    8e64:	e5801080 	str	r1, [r0, #128]	; 0x80
    8e68:	e5801084 	str	r1, [r0, #132]	; 0x84
    8e6c:	e5801088 	str	r1, [r0, #136]	; 0x88
    8e70:	e580108c 	str	r1, [r0, #140]	; 0x8c
    8e74:	e58010a0 	str	r1, [r0, #160]	; 0xa0
    8e78:	e58010a4 	str	r1, [r0, #164]	; 0xa4
    8e7c:	e58010a8 	str	r1, [r0, #168]	; 0xa8
    8e80:	e58010ac 	str	r1, [r0, #172]	; 0xac
    8e84:	e58010b0 	str	r1, [r0, #176]	; 0xb0
    8e88:	e58010b4 	str	r1, [r0, #180]	; 0xb4
    8e8c:	e58010b8 	str	r1, [r0, #184]	; 0xb8
    8e90:	e58010bc 	str	r1, [r0, #188]	; 0xbc
    8e94:	e2800c05 	add	r0, r0, #1280	; 0x500
    8e98:	e5801000 	str	r1, [r0]
    8e9c:	e5801004 	str	r1, [r0, #4]
    8ea0:	e5801020 	str	r1, [r0, #32]
    8ea4:	e5801024 	str	r1, [r0, #36]	; 0x24
    8ea8:	e5801038 	str	r1, [r0, #56]	; 0x38
    8eac:	e580103c 	str	r1, [r0, #60]	; 0x3c
    8eb0:	e5801040 	str	r1, [r0, #64]	; 0x40
    8eb4:	e5801044 	str	r1, [r0, #68]	; 0x44
    8eb8:	e5801048 	str	r1, [r0, #72]	; 0x48
    8ebc:	e580104c 	str	r1, [r0, #76]	; 0x4c
    8ec0:	e5801078 	str	r1, [r0, #120]	; 0x78
    8ec4:	e580107c 	str	r1, [r0, #124]	; 0x7c
    8ec8:	e5801080 	str	r1, [r0, #128]	; 0x80
    8ecc:	e5801084 	str	r1, [r0, #132]	; 0x84
    8ed0:	e5801088 	str	r1, [r0, #136]	; 0x88
    8ed4:	e580108c 	str	r1, [r0, #140]	; 0x8c
    8ed8:	e58010a0 	str	r1, [r0, #160]	; 0xa0
    8edc:	e58010a4 	str	r1, [r0, #164]	; 0xa4
    8ee0:	e58010a8 	str	r1, [r0, #168]	; 0xa8
    8ee4:	e58010ac 	str	r1, [r0, #172]	; 0xac
    8ee8:	e58010b0 	str	r1, [r0, #176]	; 0xb0
    8eec:	e58010b4 	str	r1, [r0, #180]	; 0xb4
    8ef0:	e58010b8 	str	r1, [r0, #184]	; 0xb8
    8ef4:	e58010bc 	str	r1, [r0, #188]	; 0xbc
    8ef8:	e2800c05 	add	r0, r0, #1280	; 0x500
    8efc:	e5801000 	str	r1, [r0]
    8f00:	e5801004 	str	r1, [r0, #4]
    8f04:	e5801020 	str	r1, [r0, #32]
    8f08:	e5801024 	str	r1, [r0, #36]	; 0x24
    8f0c:	e5801038 	str	r1, [r0, #56]	; 0x38
    8f10:	e580103c 	str	r1, [r0, #60]	; 0x3c
    8f14:	e5801040 	str	r1, [r0, #64]	; 0x40
    8f18:	e5801044 	str	r1, [r0, #68]	; 0x44
    8f1c:	e5801048 	str	r1, [r0, #72]	; 0x48
    8f20:	e580104c 	str	r1, [r0, #76]	; 0x4c
    8f24:	e5801078 	str	r1, [r0, #120]	; 0x78
    8f28:	e580107c 	str	r1, [r0, #124]	; 0x7c
    8f2c:	e5801080 	str	r1, [r0, #128]	; 0x80
    8f30:	e5801084 	str	r1, [r0, #132]	; 0x84
    8f34:	e5801088 	str	r1, [r0, #136]	; 0x88
    8f38:	e580108c 	str	r1, [r0, #140]	; 0x8c
    8f3c:	e58010a0 	str	r1, [r0, #160]	; 0xa0
    8f40:	e58010a4 	str	r1, [r0, #164]	; 0xa4
    8f44:	e58010a8 	str	r1, [r0, #168]	; 0xa8
    8f48:	e58010ac 	str	r1, [r0, #172]	; 0xac
    8f4c:	e58010b0 	str	r1, [r0, #176]	; 0xb0
    8f50:	e58010b4 	str	r1, [r0, #180]	; 0xb4
    8f54:	e58010b8 	str	r1, [r0, #184]	; 0xb8
    8f58:	e58010bc 	str	r1, [r0, #188]	; 0xbc
    8f5c:	e2800c05 	add	r0, r0, #1280	; 0x500
    8f60:	e1a0f00e 	mov	pc, lr
    8f64:	e1a00000 	nop			; (mov r0, r0)
    8f68:	e1a00000 	nop			; (mov r0, r0)
    8f6c:	e1a00000 	nop			; (mov r0, r0)

00008f70 <vc_set_res>:
    8f70:	00000050 	andeq	r0, r0, r0, asr r0
    8f74:	00000000 	andeq	r0, r0, r0
    8f78:	00048003 	andeq	r8, r4, r3
    8f7c:	00000008 	andeq	r0, r0, r8
    8f80:	00000008 	andeq	r0, r0, r8
    8f84:	00000280 	andeq	r0, r0, r0, lsl #5
    8f88:	000001e0 	andeq	r0, r0, r0, ror #3
    8f8c:	00048004 	andeq	r8, r4, r4
    8f90:	00000008 	andeq	r0, r0, r8
    8f94:	00000008 	andeq	r0, r0, r8
    8f98:	00000280 	andeq	r0, r0, r0, lsl #5
    8f9c:	000001e0 	andeq	r0, r0, r0, ror #3
    8fa0:	00048005 	andeq	r8, r4, r5
    8fa4:	00000004 	andeq	r0, r0, r4
    8fa8:	00000004 	andeq	r0, r0, r4
    8fac:	00000010 	andeq	r0, r0, r0, lsl r0
	...

00008fc0 <vc_alloc_fb>:
    8fc0:	00000020 	andeq	r0, r0, r0, lsr #32
    8fc4:	00000000 	andeq	r0, r0, r0
    8fc8:	00040001 	andeq	r0, r4, r1
    8fcc:	00000008 	andeq	r0, r0, r8
    8fd0:	00000004 	andeq	r0, r0, r4
    8fd4:	00000010 	andeq	r0, r0, r0, lsl r0
	...

00008fe0 <txt_welcome>:
    8fe0:	4f206f4e 	svcmi	0x00206f4e
    8fe4:	6e692053 	mcrvs	0, 3, r2, cr9, cr3, {2}
    8fe8:	6c617473 	cfstrdvs	mvd7, [r1], #-460	; 0xfffffe34
    8fec:	0d64656c 	cfstr64eq	mvdx6, [r4, #-432]!	; 0xfffffe50
    8ff0:	 	cmpmi	r6, #10

00008ff2 <txt_vc_fail>:
    8ff2:	69204356 	stmdbvs	r0!, {r1, r2, r4, r6, r8, r9, lr}
    8ff6:	6974696e 	ldmdbvs	r4!, {r1, r2, r3, r5, r6, r8, fp, sp, lr}^
    8ffa:	7a696c61 	bvc	1a64186 <__end+0x1a4d596>
    8ffe:	6f697461 	svcvs	0x00697461
    9002:	6166206e 	cmnvs	r6, lr, rrx
    9006:	64656c69 	strbtvs	r6, [r5], #-3177	; 0xfffff397
    900a:	00000a0d 	andeq	r0, r0, sp, lsl #20
    900e:	8f700000 	svchi	0x00700000
    9012:	8fc00000 	svchi	0x00c00000
    9016:	8ff20000 	svchi	0x00f20000
    901a:	10300000 	eorsne	r0, r0, r0
    901e:	00943f20 	addseq	r3, r4, r0, lsr #30
    9022:	00983f20 	addseq	r3, r8, r0, lsr #30
    9026:	10443f20 	subne	r3, r4, r0, lsr #30
    902a:	07ff3f20 	ldrbeq	r3, [pc, r0, lsr #30]!
    902e:	10240000 	eorne	r0, r4, r0
    9032:	10283f20 	eorne	r3, r8, r0, lsr #30
    9036:	102c3f20 	eorne	r3, ip, r0, lsr #30
    903a:	10383f20 	eorsne	r3, r8, r0, lsr #30
    903e:	07f23f20 	ldrbeq	r3, [r2, r0, lsr #30]!
    9042:	03010000 	movweq	r0, #4096	; 0x1000
    9046:	10000000 	andne	r0, r0, r0
    904a:	10183f20 	andsne	r3, r8, r0, lsr #30
    904e:	b8803f20 	stmlt	r0, {r5, r8, r9, sl, fp, ip, sp}
    9052:	4e263f00 	cdpmi	15, 2, cr3, cr6, cr0, {0}
    9056:	 	stmdami	r0, {r2}

00009058 <hal_io_serial_init>:
    9058:	e92d4800 	push	{fp, lr}
    905c:	e28db004 	add	fp, sp, #4
    9060:	eb0004f9 	bl	a44c <uart_init>
    9064:	e320f000 	nop	{0}
    9068:	e8bd8800 	pop	{fp, pc}

0000906c <hal_io_serial_putc>:
    906c:	e92d4800 	push	{fp, lr}
    9070:	e28db004 	add	fp, sp, #4
    9074:	e24dd008 	sub	sp, sp, #8
    9078:	e50b0008 	str	r0, [fp, #-8]
    907c:	e1a03001 	mov	r3, r1
    9080:	e54b3009 	strb	r3, [fp, #-9]
    9084:	e55b3009 	ldrb	r3, [fp, #-9]
    9088:	e1a00003 	mov	r0, r3
    908c:	eb0004c8 	bl	a3b4 <uart_putc>
    9090:	e320f000 	nop	{0}
    9094:	e24bd004 	sub	sp, fp, #4
    9098:	e8bd8800 	pop	{fp, pc}

0000909c <hal_io_serial_puts>:
    909c:	e92d4800 	push	{fp, lr}
    90a0:	e28db004 	add	fp, sp, #4
    90a4:	e24dd008 	sub	sp, sp, #8
    90a8:	e50b0008 	str	r0, [fp, #-8]
    90ac:	e50b100c 	str	r1, [fp, #-12]
    90b0:	e51b000c 	ldr	r0, [fp, #-12]
    90b4:	eb0004ac 	bl	a36c <uart_puts>
    90b8:	e320f000 	nop	{0}
    90bc:	e24bd004 	sub	sp, fp, #4
    90c0:	e8bd8800 	pop	{fp, pc}

000090c4 <hal_io_serial_getc>:
    90c4:	e92d4800 	push	{fp, lr}
    90c8:	e28db004 	add	fp, sp, #4
    90cc:	e24dd008 	sub	sp, sp, #8
    90d0:	e50b0008 	str	r0, [fp, #-8]
    90d4:	eb0004cb 	bl	a408 <uart_getc>
    90d8:	e1a03000 	mov	r3, r0
    90dc:	e1a00003 	mov	r0, r3
    90e0:	e24bd004 	sub	sp, fp, #4
    90e4:	e8bd8800 	pop	{fp, pc}

000090e8 <hal_io_video_init>:
    90e8:	e92d4800 	push	{fp, lr}
    90ec:	e28db004 	add	fp, sp, #4
    90f0:	ebfffbed 	bl	80ac <_video_init>
    90f4:	e320f000 	nop	{0}
    90f8:	e8bd8800 	pop	{fp, pc}

000090fc <hal_io_video_putpixel>:
    90fc:	e92d4800 	push	{fp, lr}
    9100:	e28db004 	add	fp, sp, #4
    9104:	e24dd018 	sub	sp, sp, #24
    9108:	e50b0010 	str	r0, [fp, #-16]
    910c:	e50b1014 	str	r1, [fp, #-20]	; 0xffffffec
    9110:	e50b2018 	str	r2, [fp, #-24]	; 0xffffffe8
    9114:	e51b3014 	ldr	r3, [fp, #-20]	; 0xffffffec
    9118:	e3a02c05 	mov	r2, #1280	; 0x500
    911c:	e0030392 	mul	r3, r2, r3
    9120:	e50b3008 	str	r3, [fp, #-8]
    9124:	e51b3010 	ldr	r3, [fp, #-16]
    9128:	e51b1008 	ldr	r1, [fp, #-8]
    912c:	e3e02000 	mvn	r2, #0
    9130:	e1a00003 	mov	r0, r3
    9134:	ebfffc2c 	bl	81ec <_vc_draw_pixel>
    9138:	e320f000 	nop	{0}
    913c:	e24bd004 	sub	sp, fp, #4
    9140:	e8bd8800 	pop	{fp, pc}

00009144 <hal_io_video_putc>:
    9144:	e92d4800 	push	{fp, lr}
    9148:	e28db004 	add	fp, sp, #4
    914c:	e24dde11 	sub	sp, sp, #272	; 0x110
    9150:	e50b0108 	str	r0, [fp, #-264]	; 0xfffffef8
    9154:	e50b110c 	str	r1, [fp, #-268]	; 0xfffffef4
    9158:	e50b2110 	str	r2, [fp, #-272]	; 0xfffffef0
    915c:	e54b3111 	strb	r3, [fp, #-273]	; 0xfffffeef
    9160:	e51b3108 	ldr	r3, [fp, #-264]	; 0xfffffef8
    9164:	e50b30d8 	str	r3, [fp, #-216]	; 0xffffff28
    9168:	e51b310c 	ldr	r3, [fp, #-268]	; 0xfffffef4
    916c:	e50b30dc 	str	r3, [fp, #-220]	; 0xffffff24
    9170:	e3a03000 	mov	r3, #0
    9174:	e50b30e0 	str	r3, [fp, #-224]	; 0xffffff20
    9178:	e55b3111 	ldrb	r3, [fp, #-273]	; 0xfffffeef
    917c:	e54b30e1 	strb	r3, [fp, #-225]	; 0xffffff1f
    9180:	e55b30e1 	ldrb	r3, [fp, #-225]	; 0xffffff1f
    9184:	e2433001 	sub	r3, r3, #1
    9188:	e3530079 	cmp	r3, #121	; 0x79
    918c:	908ff103 	addls	pc, pc, r3, lsl #2
    9190:	ea00043b 	b	a284 <hal_io_video_putc+0x1140>
    9194:	ea0001a0 	b	981c <hal_io_video_putc+0x6d8>
    9198:	ea0001c4 	b	98b0 <hal_io_video_putc+0x76c>
    919c:	ea0003c9 	b	a0c8 <hal_io_video_putc+0xf84>
    91a0:	ea0003ed 	b	a15c <hal_io_video_putc+0x1018>
    91a4:	ea000436 	b	a284 <hal_io_video_putc+0x1140>
    91a8:	ea000435 	b	a284 <hal_io_video_putc+0x1140>
    91ac:	ea000434 	b	a284 <hal_io_video_putc+0x1140>
    91b0:	ea000433 	b	a284 <hal_io_video_putc+0x1140>
    91b4:	ea000432 	b	a284 <hal_io_video_putc+0x1140>
    91b8:	ea000431 	b	a284 <hal_io_video_putc+0x1140>
    91bc:	ea000430 	b	a284 <hal_io_video_putc+0x1140>
    91c0:	ea00042f 	b	a284 <hal_io_video_putc+0x1140>
    91c4:	ea00042e 	b	a284 <hal_io_video_putc+0x1140>
    91c8:	ea00042d 	b	a284 <hal_io_video_putc+0x1140>
    91cc:	ea00042c 	b	a284 <hal_io_video_putc+0x1140>
    91d0:	ea00042b 	b	a284 <hal_io_video_putc+0x1140>
    91d4:	ea00042a 	b	a284 <hal_io_video_putc+0x1140>
    91d8:	ea000429 	b	a284 <hal_io_video_putc+0x1140>
    91dc:	ea000428 	b	a284 <hal_io_video_putc+0x1140>
    91e0:	ea000427 	b	a284 <hal_io_video_putc+0x1140>
    91e4:	ea000426 	b	a284 <hal_io_video_putc+0x1140>
    91e8:	ea000425 	b	a284 <hal_io_video_putc+0x1140>
    91ec:	ea000424 	b	a284 <hal_io_video_putc+0x1140>
    91f0:	ea000423 	b	a284 <hal_io_video_putc+0x1140>
    91f4:	ea000422 	b	a284 <hal_io_video_putc+0x1140>
    91f8:	ea000421 	b	a284 <hal_io_video_putc+0x1140>
    91fc:	ea000420 	b	a284 <hal_io_video_putc+0x1140>
    9200:	ea00041f 	b	a284 <hal_io_video_putc+0x1140>
    9204:	ea00041e 	b	a284 <hal_io_video_putc+0x1140>
    9208:	ea00041d 	b	a284 <hal_io_video_putc+0x1140>
    920c:	ea00041c 	b	a284 <hal_io_video_putc+0x1140>
    9210:	ea00041b 	b	a284 <hal_io_video_putc+0x1140>
    9214:	ea00041a 	b	a284 <hal_io_video_putc+0x1140>
    9218:	ea000419 	b	a284 <hal_io_video_putc+0x1140>
    921c:	ea000418 	b	a284 <hal_io_video_putc+0x1140>
    9220:	ea000417 	b	a284 <hal_io_video_putc+0x1140>
    9224:	ea000416 	b	a284 <hal_io_video_putc+0x1140>
    9228:	ea000415 	b	a284 <hal_io_video_putc+0x1140>
    922c:	ea000414 	b	a284 <hal_io_video_putc+0x1140>
    9230:	ea000413 	b	a284 <hal_io_video_putc+0x1140>
    9234:	ea000412 	b	a284 <hal_io_video_putc+0x1140>
    9238:	ea000411 	b	a284 <hal_io_video_putc+0x1140>
    923c:	ea000410 	b	a284 <hal_io_video_putc+0x1140>
    9240:	ea00040f 	b	a284 <hal_io_video_putc+0x1140>
    9244:	ea00040e 	b	a284 <hal_io_video_putc+0x1140>
    9248:	ea00040d 	b	a284 <hal_io_video_putc+0x1140>
    924c:	ea00040c 	b	a284 <hal_io_video_putc+0x1140>
    9250:	ea00040b 	b	a284 <hal_io_video_putc+0x1140>
    9254:	ea00040a 	b	a284 <hal_io_video_putc+0x1140>
    9258:	ea000409 	b	a284 <hal_io_video_putc+0x1140>
    925c:	ea000408 	b	a284 <hal_io_video_putc+0x1140>
    9260:	ea000407 	b	a284 <hal_io_video_putc+0x1140>
    9264:	ea000406 	b	a284 <hal_io_video_putc+0x1140>
    9268:	ea000405 	b	a284 <hal_io_video_putc+0x1140>
    926c:	ea000404 	b	a284 <hal_io_video_putc+0x1140>
    9270:	ea000403 	b	a284 <hal_io_video_putc+0x1140>
    9274:	ea000402 	b	a284 <hal_io_video_putc+0x1140>
    9278:	ea000401 	b	a284 <hal_io_video_putc+0x1140>
    927c:	ea000400 	b	a284 <hal_io_video_putc+0x1140>
    9280:	ea0003ff 	b	a284 <hal_io_video_putc+0x1140>
    9284:	ea0003fe 	b	a284 <hal_io_video_putc+0x1140>
    9288:	ea0003fd 	b	a284 <hal_io_video_putc+0x1140>
    928c:	ea0003fc 	b	a284 <hal_io_video_putc+0x1140>
    9290:	ea0003fb 	b	a284 <hal_io_video_putc+0x1140>
    9294:	ea0003fa 	b	a284 <hal_io_video_putc+0x1140>
    9298:	ea0003f9 	b	a284 <hal_io_video_putc+0x1140>
    929c:	ea0003f8 	b	a284 <hal_io_video_putc+0x1140>
    92a0:	ea0003f7 	b	a284 <hal_io_video_putc+0x1140>
    92a4:	ea0003f6 	b	a284 <hal_io_video_putc+0x1140>
    92a8:	ea0003f5 	b	a284 <hal_io_video_putc+0x1140>
    92ac:	ea0003f4 	b	a284 <hal_io_video_putc+0x1140>
    92b0:	ea0003f3 	b	a284 <hal_io_video_putc+0x1140>
    92b4:	ea0003f2 	b	a284 <hal_io_video_putc+0x1140>
    92b8:	ea0003f1 	b	a284 <hal_io_video_putc+0x1140>
    92bc:	ea0003f0 	b	a284 <hal_io_video_putc+0x1140>
    92c0:	ea0003ef 	b	a284 <hal_io_video_putc+0x1140>
    92c4:	ea0003ee 	b	a284 <hal_io_video_putc+0x1140>
    92c8:	ea0003ed 	b	a284 <hal_io_video_putc+0x1140>
    92cc:	ea0003ec 	b	a284 <hal_io_video_putc+0x1140>
    92d0:	ea0003eb 	b	a284 <hal_io_video_putc+0x1140>
    92d4:	ea0003ea 	b	a284 <hal_io_video_putc+0x1140>
    92d8:	ea0003e9 	b	a284 <hal_io_video_putc+0x1140>
    92dc:	ea0003e8 	b	a284 <hal_io_video_putc+0x1140>
    92e0:	ea0003e7 	b	a284 <hal_io_video_putc+0x1140>
    92e4:	ea0003e6 	b	a284 <hal_io_video_putc+0x1140>
    92e8:	ea0003e5 	b	a284 <hal_io_video_putc+0x1140>
    92ec:	ea0003e4 	b	a284 <hal_io_video_putc+0x1140>
    92f0:	ea0003e3 	b	a284 <hal_io_video_putc+0x1140>
    92f4:	ea0003e2 	b	a284 <hal_io_video_putc+0x1140>
    92f8:	ea0003e1 	b	a284 <hal_io_video_putc+0x1140>
    92fc:	ea0003e0 	b	a284 <hal_io_video_putc+0x1140>
    9300:	ea0003df 	b	a284 <hal_io_video_putc+0x1140>
    9304:	ea0003de 	b	a284 <hal_io_video_putc+0x1140>
    9308:	ea0003dd 	b	a284 <hal_io_video_putc+0x1140>
    930c:	ea0003dc 	b	a284 <hal_io_video_putc+0x1140>
    9310:	ea0003db 	b	a284 <hal_io_video_putc+0x1140>
    9314:	ea000018 	b	937c <hal_io_video_putc+0x238>
    9318:	ea00003c 	b	9410 <hal_io_video_putc+0x2cc>
    931c:	ea000060 	b	94a4 <hal_io_video_putc+0x360>
    9320:	ea000084 	b	9538 <hal_io_video_putc+0x3f4>
    9324:	ea0000a8 	b	95cc <hal_io_video_putc+0x488>
    9328:	ea0000cc 	b	9660 <hal_io_video_putc+0x51c>
    932c:	ea0000f0 	b	96f4 <hal_io_video_putc+0x5b0>
    9330:	ea000114 	b	9788 <hal_io_video_putc+0x644>
    9334:	ea0003d2 	b	a284 <hal_io_video_putc+0x1140>
    9338:	ea0003d1 	b	a284 <hal_io_video_putc+0x1140>
    933c:	ea000180 	b	9944 <hal_io_video_putc+0x800>
    9340:	ea0001a4 	b	99d8 <hal_io_video_putc+0x894>
    9344:	ea0001c8 	b	9a6c <hal_io_video_putc+0x928>
    9348:	ea0001ec 	b	9b00 <hal_io_video_putc+0x9bc>
    934c:	ea000210 	b	9b94 <hal_io_video_putc+0xa50>
    9350:	ea000234 	b	9c28 <hal_io_video_putc+0xae4>
    9354:	ea000258 	b	9cbc <hal_io_video_putc+0xb78>
    9358:	ea00027c 	b	9d50 <hal_io_video_putc+0xc0c>
    935c:	ea0002a0 	b	9de4 <hal_io_video_putc+0xca0>
    9360:	ea0002c4 	b	9e78 <hal_io_video_putc+0xd34>
    9364:	ea0002e8 	b	9f0c <hal_io_video_putc+0xdc8>
    9368:	ea00030c 	b	9fa0 <hal_io_video_putc+0xe5c>
    936c:	ea000330 	b	a034 <hal_io_video_putc+0xef0>
    9370:	ea0003c3 	b	a284 <hal_io_video_putc+0x1140>
    9374:	ea0003c2 	b	a284 <hal_io_video_putc+0x1140>
    9378:	ea00039c 	b	a1f0 <hal_io_video_putc+0x10ac>
    937c:	e3a03000 	mov	r3, #0
    9380:	e50b3008 	str	r3, [fp, #-8]
    9384:	ea00001d 	b	9400 <hal_io_video_putc+0x2bc>
    9388:	e3a03000 	mov	r3, #0
    938c:	e50b300c 	str	r3, [fp, #-12]
    9390:	ea000014 	b	93e8 <hal_io_video_putc+0x2a4>
    9394:	e59f3ef8 	ldr	r3, [pc, #3832]	; a294 <hal_io_video_putc+0x1150>
    9398:	e08f3003 	add	r3, pc, r3
    939c:	e51b2008 	ldr	r2, [fp, #-8]
    93a0:	e1a01202 	lsl	r1, r2, #4
    93a4:	e51b200c 	ldr	r2, [fp, #-12]
    93a8:	e0812002 	add	r2, r1, r2
    93ac:	e7933102 	ldr	r3, [r3, r2, lsl #2]
    93b0:	e3530001 	cmp	r3, #1
    93b4:	1a000008 	bne	93dc <hal_io_video_putc+0x298>
    93b8:	e51b20d8 	ldr	r2, [fp, #-216]	; 0xffffff28
    93bc:	e51b300c 	ldr	r3, [fp, #-12]
    93c0:	e0820003 	add	r0, r2, r3
    93c4:	e51b20dc 	ldr	r2, [fp, #-220]	; 0xffffff24
    93c8:	e51b3008 	ldr	r3, [fp, #-8]
    93cc:	e0823003 	add	r3, r2, r3
    93d0:	e3e02000 	mvn	r2, #0
    93d4:	e1a01003 	mov	r1, r3
    93d8:	ebffff47 	bl	90fc <hal_io_video_putpixel>
    93dc:	e51b300c 	ldr	r3, [fp, #-12]
    93e0:	e2833001 	add	r3, r3, #1
    93e4:	e50b300c 	str	r3, [fp, #-12]
    93e8:	e51b300c 	ldr	r3, [fp, #-12]
    93ec:	e353000f 	cmp	r3, #15
    93f0:	daffffe7 	ble	9394 <hal_io_video_putc+0x250>
    93f4:	e51b3008 	ldr	r3, [fp, #-8]
    93f8:	e2833001 	add	r3, r3, #1
    93fc:	e50b3008 	str	r3, [fp, #-8]
    9400:	e51b3008 	ldr	r3, [fp, #-8]
    9404:	e3530015 	cmp	r3, #21
    9408:	daffffde 	ble	9388 <hal_io_video_putc+0x244>
    940c:	ea00039d 	b	a288 <hal_io_video_putc+0x1144>
    9410:	e3a03000 	mov	r3, #0
    9414:	e50b3010 	str	r3, [fp, #-16]
    9418:	ea00001d 	b	9494 <hal_io_video_putc+0x350>
    941c:	e3a03000 	mov	r3, #0
    9420:	e50b3014 	str	r3, [fp, #-20]	; 0xffffffec
    9424:	ea000014 	b	947c <hal_io_video_putc+0x338>
    9428:	e59f3e68 	ldr	r3, [pc, #3688]	; a298 <hal_io_video_putc+0x1154>
    942c:	e08f3003 	add	r3, pc, r3
    9430:	e51b2010 	ldr	r2, [fp, #-16]
    9434:	e1a01202 	lsl	r1, r2, #4
    9438:	e51b2014 	ldr	r2, [fp, #-20]	; 0xffffffec
    943c:	e0812002 	add	r2, r1, r2
    9440:	e7933102 	ldr	r3, [r3, r2, lsl #2]
    9444:	e3530001 	cmp	r3, #1
    9448:	1a000008 	bne	9470 <hal_io_video_putc+0x32c>
    944c:	e51b20d8 	ldr	r2, [fp, #-216]	; 0xffffff28
    9450:	e51b3014 	ldr	r3, [fp, #-20]	; 0xffffffec
    9454:	e0820003 	add	r0, r2, r3
    9458:	e51b20dc 	ldr	r2, [fp, #-220]	; 0xffffff24
    945c:	e51b3010 	ldr	r3, [fp, #-16]
    9460:	e0823003 	add	r3, r2, r3
    9464:	e3e02000 	mvn	r2, #0
    9468:	e1a01003 	mov	r1, r3
    946c:	ebffff22 	bl	90fc <hal_io_video_putpixel>
    9470:	e51b3014 	ldr	r3, [fp, #-20]	; 0xffffffec
    9474:	e2833001 	add	r3, r3, #1
    9478:	e50b3014 	str	r3, [fp, #-20]	; 0xffffffec
    947c:	e51b3014 	ldr	r3, [fp, #-20]	; 0xffffffec
    9480:	e353000f 	cmp	r3, #15
    9484:	daffffe7 	ble	9428 <hal_io_video_putc+0x2e4>
    9488:	e51b3010 	ldr	r3, [fp, #-16]
    948c:	e2833001 	add	r3, r3, #1
    9490:	e50b3010 	str	r3, [fp, #-16]
    9494:	e51b3010 	ldr	r3, [fp, #-16]
    9498:	e3530015 	cmp	r3, #21
    949c:	daffffde 	ble	941c <hal_io_video_putc+0x2d8>
    94a0:	ea000378 	b	a288 <hal_io_video_putc+0x1144>
    94a4:	e3a03000 	mov	r3, #0
    94a8:	e50b3018 	str	r3, [fp, #-24]	; 0xffffffe8
    94ac:	ea00001d 	b	9528 <hal_io_video_putc+0x3e4>
    94b0:	e3a03000 	mov	r3, #0
    94b4:	e50b301c 	str	r3, [fp, #-28]	; 0xffffffe4
    94b8:	ea000014 	b	9510 <hal_io_video_putc+0x3cc>
    94bc:	e59f3dd8 	ldr	r3, [pc, #3544]	; a29c <hal_io_video_putc+0x1158>
    94c0:	e08f3003 	add	r3, pc, r3
    94c4:	e51b2018 	ldr	r2, [fp, #-24]	; 0xffffffe8
    94c8:	e1a01202 	lsl	r1, r2, #4
    94cc:	e51b201c 	ldr	r2, [fp, #-28]	; 0xffffffe4
    94d0:	e0812002 	add	r2, r1, r2
    94d4:	e7933102 	ldr	r3, [r3, r2, lsl #2]
    94d8:	e3530001 	cmp	r3, #1
    94dc:	1a000008 	bne	9504 <hal_io_video_putc+0x3c0>
    94e0:	e51b20d8 	ldr	r2, [fp, #-216]	; 0xffffff28
    94e4:	e51b301c 	ldr	r3, [fp, #-28]	; 0xffffffe4
    94e8:	e0820003 	add	r0, r2, r3
    94ec:	e51b20dc 	ldr	r2, [fp, #-220]	; 0xffffff24
    94f0:	e51b3018 	ldr	r3, [fp, #-24]	; 0xffffffe8
    94f4:	e0823003 	add	r3, r2, r3
    94f8:	e3e02000 	mvn	r2, #0
    94fc:	e1a01003 	mov	r1, r3
    9500:	ebfffefd 	bl	90fc <hal_io_video_putpixel>
    9504:	e51b301c 	ldr	r3, [fp, #-28]	; 0xffffffe4
    9508:	e2833001 	add	r3, r3, #1
    950c:	e50b301c 	str	r3, [fp, #-28]	; 0xffffffe4
    9510:	e51b301c 	ldr	r3, [fp, #-28]	; 0xffffffe4
    9514:	e353000f 	cmp	r3, #15
    9518:	daffffe7 	ble	94bc <hal_io_video_putc+0x378>
    951c:	e51b3018 	ldr	r3, [fp, #-24]	; 0xffffffe8
    9520:	e2833001 	add	r3, r3, #1
    9524:	e50b3018 	str	r3, [fp, #-24]	; 0xffffffe8
    9528:	e51b3018 	ldr	r3, [fp, #-24]	; 0xffffffe8
    952c:	e3530015 	cmp	r3, #21
    9530:	daffffde 	ble	94b0 <hal_io_video_putc+0x36c>
    9534:	ea000353 	b	a288 <hal_io_video_putc+0x1144>
    9538:	e3a03000 	mov	r3, #0
    953c:	e50b3020 	str	r3, [fp, #-32]	; 0xffffffe0
    9540:	ea00001d 	b	95bc <hal_io_video_putc+0x478>
    9544:	e3a03000 	mov	r3, #0
    9548:	e50b3024 	str	r3, [fp, #-36]	; 0xffffffdc
    954c:	ea000014 	b	95a4 <hal_io_video_putc+0x460>
    9550:	e59f3d48 	ldr	r3, [pc, #3400]	; a2a0 <hal_io_video_putc+0x115c>
    9554:	e08f3003 	add	r3, pc, r3
    9558:	e51b2020 	ldr	r2, [fp, #-32]	; 0xffffffe0
    955c:	e1a01202 	lsl	r1, r2, #4
    9560:	e51b2024 	ldr	r2, [fp, #-36]	; 0xffffffdc
    9564:	e0812002 	add	r2, r1, r2
    9568:	e7933102 	ldr	r3, [r3, r2, lsl #2]
    956c:	e3530001 	cmp	r3, #1
    9570:	1a000008 	bne	9598 <hal_io_video_putc+0x454>
    9574:	e51b20d8 	ldr	r2, [fp, #-216]	; 0xffffff28
    9578:	e51b3024 	ldr	r3, [fp, #-36]	; 0xffffffdc
    957c:	e0820003 	add	r0, r2, r3
    9580:	e51b20dc 	ldr	r2, [fp, #-220]	; 0xffffff24
    9584:	e51b3020 	ldr	r3, [fp, #-32]	; 0xffffffe0
    9588:	e0823003 	add	r3, r2, r3
    958c:	e3e02000 	mvn	r2, #0
    9590:	e1a01003 	mov	r1, r3
    9594:	ebfffed8 	bl	90fc <hal_io_video_putpixel>
    9598:	e51b3024 	ldr	r3, [fp, #-36]	; 0xffffffdc
    959c:	e2833001 	add	r3, r3, #1
    95a0:	e50b3024 	str	r3, [fp, #-36]	; 0xffffffdc
    95a4:	e51b3024 	ldr	r3, [fp, #-36]	; 0xffffffdc
    95a8:	e353000f 	cmp	r3, #15
    95ac:	daffffe7 	ble	9550 <hal_io_video_putc+0x40c>
    95b0:	e51b3020 	ldr	r3, [fp, #-32]	; 0xffffffe0
    95b4:	e2833001 	add	r3, r3, #1
    95b8:	e50b3020 	str	r3, [fp, #-32]	; 0xffffffe0
    95bc:	e51b3020 	ldr	r3, [fp, #-32]	; 0xffffffe0
    95c0:	e3530015 	cmp	r3, #21
    95c4:	daffffde 	ble	9544 <hal_io_video_putc+0x400>
    95c8:	ea00032e 	b	a288 <hal_io_video_putc+0x1144>
    95cc:	e3a03000 	mov	r3, #0
    95d0:	e50b3028 	str	r3, [fp, #-40]	; 0xffffffd8
    95d4:	ea00001d 	b	9650 <hal_io_video_putc+0x50c>
    95d8:	e3a03000 	mov	r3, #0
    95dc:	e50b302c 	str	r3, [fp, #-44]	; 0xffffffd4
    95e0:	ea000014 	b	9638 <hal_io_video_putc+0x4f4>
    95e4:	e59f3cb8 	ldr	r3, [pc, #3256]	; a2a4 <hal_io_video_putc+0x1160>
    95e8:	e08f3003 	add	r3, pc, r3
    95ec:	e51b2028 	ldr	r2, [fp, #-40]	; 0xffffffd8
    95f0:	e1a01202 	lsl	r1, r2, #4
    95f4:	e51b202c 	ldr	r2, [fp, #-44]	; 0xffffffd4
    95f8:	e0812002 	add	r2, r1, r2
    95fc:	e7933102 	ldr	r3, [r3, r2, lsl #2]
    9600:	e3530001 	cmp	r3, #1
    9604:	1a000008 	bne	962c <hal_io_video_putc+0x4e8>
    9608:	e51b20d8 	ldr	r2, [fp, #-216]	; 0xffffff28
    960c:	e51b302c 	ldr	r3, [fp, #-44]	; 0xffffffd4
    9610:	e0820003 	add	r0, r2, r3
    9614:	e51b20dc 	ldr	r2, [fp, #-220]	; 0xffffff24
    9618:	e51b3028 	ldr	r3, [fp, #-40]	; 0xffffffd8
    961c:	e0823003 	add	r3, r2, r3
    9620:	e3e02000 	mvn	r2, #0
    9624:	e1a01003 	mov	r1, r3
    9628:	ebfffeb3 	bl	90fc <hal_io_video_putpixel>
    962c:	e51b302c 	ldr	r3, [fp, #-44]	; 0xffffffd4
    9630:	e2833001 	add	r3, r3, #1
    9634:	e50b302c 	str	r3, [fp, #-44]	; 0xffffffd4
    9638:	e51b302c 	ldr	r3, [fp, #-44]	; 0xffffffd4
    963c:	e353000f 	cmp	r3, #15
    9640:	daffffe7 	ble	95e4 <hal_io_video_putc+0x4a0>
    9644:	e51b3028 	ldr	r3, [fp, #-40]	; 0xffffffd8
    9648:	e2833001 	add	r3, r3, #1
    964c:	e50b3028 	str	r3, [fp, #-40]	; 0xffffffd8
    9650:	e51b3028 	ldr	r3, [fp, #-40]	; 0xffffffd8
    9654:	e3530015 	cmp	r3, #21
    9658:	daffffde 	ble	95d8 <hal_io_video_putc+0x494>
    965c:	ea000309 	b	a288 <hal_io_video_putc+0x1144>
    9660:	e3a03000 	mov	r3, #0
    9664:	e50b3030 	str	r3, [fp, #-48]	; 0xffffffd0
    9668:	ea00001d 	b	96e4 <hal_io_video_putc+0x5a0>
    966c:	e3a03000 	mov	r3, #0
    9670:	e50b3034 	str	r3, [fp, #-52]	; 0xffffffcc
    9674:	ea000014 	b	96cc <hal_io_video_putc+0x588>
    9678:	e59f3c28 	ldr	r3, [pc, #3112]	; a2a8 <hal_io_video_putc+0x1164>
    967c:	e08f3003 	add	r3, pc, r3
    9680:	e51b2030 	ldr	r2, [fp, #-48]	; 0xffffffd0
    9684:	e1a01202 	lsl	r1, r2, #4
    9688:	e51b2034 	ldr	r2, [fp, #-52]	; 0xffffffcc
    968c:	e0812002 	add	r2, r1, r2
    9690:	e7933102 	ldr	r3, [r3, r2, lsl #2]
    9694:	e3530001 	cmp	r3, #1
    9698:	1a000008 	bne	96c0 <hal_io_video_putc+0x57c>
    969c:	e51b20d8 	ldr	r2, [fp, #-216]	; 0xffffff28
    96a0:	e51b3034 	ldr	r3, [fp, #-52]	; 0xffffffcc
    96a4:	e0820003 	add	r0, r2, r3
    96a8:	e51b20dc 	ldr	r2, [fp, #-220]	; 0xffffff24
    96ac:	e51b3030 	ldr	r3, [fp, #-48]	; 0xffffffd0
    96b0:	e0823003 	add	r3, r2, r3
    96b4:	e3e02000 	mvn	r2, #0
    96b8:	e1a01003 	mov	r1, r3
    96bc:	ebfffe8e 	bl	90fc <hal_io_video_putpixel>
    96c0:	e51b3034 	ldr	r3, [fp, #-52]	; 0xffffffcc
    96c4:	e2833001 	add	r3, r3, #1
    96c8:	e50b3034 	str	r3, [fp, #-52]	; 0xffffffcc
    96cc:	e51b3034 	ldr	r3, [fp, #-52]	; 0xffffffcc
    96d0:	e353000f 	cmp	r3, #15
    96d4:	daffffe7 	ble	9678 <hal_io_video_putc+0x534>
    96d8:	e51b3030 	ldr	r3, [fp, #-48]	; 0xffffffd0
    96dc:	e2833001 	add	r3, r3, #1
    96e0:	e50b3030 	str	r3, [fp, #-48]	; 0xffffffd0
    96e4:	e51b3030 	ldr	r3, [fp, #-48]	; 0xffffffd0
    96e8:	e3530015 	cmp	r3, #21
    96ec:	daffffde 	ble	966c <hal_io_video_putc+0x528>
    96f0:	ea0002e4 	b	a288 <hal_io_video_putc+0x1144>
    96f4:	e3a03000 	mov	r3, #0
    96f8:	e50b3038 	str	r3, [fp, #-56]	; 0xffffffc8
    96fc:	ea00001d 	b	9778 <hal_io_video_putc+0x634>
    9700:	e3a03000 	mov	r3, #0
    9704:	e50b303c 	str	r3, [fp, #-60]	; 0xffffffc4
    9708:	ea000014 	b	9760 <hal_io_video_putc+0x61c>
    970c:	e59f3b98 	ldr	r3, [pc, #2968]	; a2ac <hal_io_video_putc+0x1168>
    9710:	e08f3003 	add	r3, pc, r3
    9714:	e51b2038 	ldr	r2, [fp, #-56]	; 0xffffffc8
    9718:	e1a01202 	lsl	r1, r2, #4
    971c:	e51b203c 	ldr	r2, [fp, #-60]	; 0xffffffc4
    9720:	e0812002 	add	r2, r1, r2
    9724:	e7933102 	ldr	r3, [r3, r2, lsl #2]
    9728:	e3530001 	cmp	r3, #1
    972c:	1a000008 	bne	9754 <hal_io_video_putc+0x610>
    9730:	e51b20d8 	ldr	r2, [fp, #-216]	; 0xffffff28
    9734:	e51b303c 	ldr	r3, [fp, #-60]	; 0xffffffc4
    9738:	e0820003 	add	r0, r2, r3
    973c:	e51b20dc 	ldr	r2, [fp, #-220]	; 0xffffff24
    9740:	e51b3038 	ldr	r3, [fp, #-56]	; 0xffffffc8
    9744:	e0823003 	add	r3, r2, r3
    9748:	e3e02000 	mvn	r2, #0
    974c:	e1a01003 	mov	r1, r3
    9750:	ebfffe69 	bl	90fc <hal_io_video_putpixel>
    9754:	e51b303c 	ldr	r3, [fp, #-60]	; 0xffffffc4
    9758:	e2833001 	add	r3, r3, #1
    975c:	e50b303c 	str	r3, [fp, #-60]	; 0xffffffc4
    9760:	e51b303c 	ldr	r3, [fp, #-60]	; 0xffffffc4
    9764:	e353000f 	cmp	r3, #15
    9768:	daffffe7 	ble	970c <hal_io_video_putc+0x5c8>
    976c:	e51b3038 	ldr	r3, [fp, #-56]	; 0xffffffc8
    9770:	e2833001 	add	r3, r3, #1
    9774:	e50b3038 	str	r3, [fp, #-56]	; 0xffffffc8
    9778:	e51b3038 	ldr	r3, [fp, #-56]	; 0xffffffc8
    977c:	e3530015 	cmp	r3, #21
    9780:	daffffde 	ble	9700 <hal_io_video_putc+0x5bc>
    9784:	ea0002bf 	b	a288 <hal_io_video_putc+0x1144>
    9788:	e3a03000 	mov	r3, #0
    978c:	e50b3040 	str	r3, [fp, #-64]	; 0xffffffc0
    9790:	ea00001d 	b	980c <hal_io_video_putc+0x6c8>
    9794:	e3a03000 	mov	r3, #0
    9798:	e50b3044 	str	r3, [fp, #-68]	; 0xffffffbc
    979c:	ea000014 	b	97f4 <hal_io_video_putc+0x6b0>
    97a0:	e59f3b08 	ldr	r3, [pc, #2824]	; a2b0 <hal_io_video_putc+0x116c>
    97a4:	e08f3003 	add	r3, pc, r3
    97a8:	e51b2040 	ldr	r2, [fp, #-64]	; 0xffffffc0
    97ac:	e1a01202 	lsl	r1, r2, #4
    97b0:	e51b2044 	ldr	r2, [fp, #-68]	; 0xffffffbc
    97b4:	e0812002 	add	r2, r1, r2
    97b8:	e7933102 	ldr	r3, [r3, r2, lsl #2]
    97bc:	e3530001 	cmp	r3, #1
    97c0:	1a000008 	bne	97e8 <hal_io_video_putc+0x6a4>
    97c4:	e51b20d8 	ldr	r2, [fp, #-216]	; 0xffffff28
    97c8:	e51b3044 	ldr	r3, [fp, #-68]	; 0xffffffbc
    97cc:	e0820003 	add	r0, r2, r3
    97d0:	e51b20dc 	ldr	r2, [fp, #-220]	; 0xffffff24
    97d4:	e51b3040 	ldr	r3, [fp, #-64]	; 0xffffffc0
    97d8:	e0823003 	add	r3, r2, r3
    97dc:	e3e02000 	mvn	r2, #0
    97e0:	e1a01003 	mov	r1, r3
    97e4:	ebfffe44 	bl	90fc <hal_io_video_putpixel>
    97e8:	e51b3044 	ldr	r3, [fp, #-68]	; 0xffffffbc
    97ec:	e2833001 	add	r3, r3, #1
    97f0:	e50b3044 	str	r3, [fp, #-68]	; 0xffffffbc
    97f4:	e51b3044 	ldr	r3, [fp, #-68]	; 0xffffffbc
    97f8:	e353000f 	cmp	r3, #15
    97fc:	daffffe7 	ble	97a0 <hal_io_video_putc+0x65c>
    9800:	e51b3040 	ldr	r3, [fp, #-64]	; 0xffffffc0
    9804:	e2833001 	add	r3, r3, #1
    9808:	e50b3040 	str	r3, [fp, #-64]	; 0xffffffc0
    980c:	e51b3040 	ldr	r3, [fp, #-64]	; 0xffffffc0
    9810:	e3530015 	cmp	r3, #21
    9814:	daffffde 	ble	9794 <hal_io_video_putc+0x650>
    9818:	ea00029a 	b	a288 <hal_io_video_putc+0x1144>
    981c:	e3a03000 	mov	r3, #0
    9820:	e50b3048 	str	r3, [fp, #-72]	; 0xffffffb8
    9824:	ea00001d 	b	98a0 <hal_io_video_putc+0x75c>
    9828:	e3a03000 	mov	r3, #0
    982c:	e50b304c 	str	r3, [fp, #-76]	; 0xffffffb4
    9830:	ea000014 	b	9888 <hal_io_video_putc+0x744>
    9834:	e59f3a78 	ldr	r3, [pc, #2680]	; a2b4 <hal_io_video_putc+0x1170>
    9838:	e08f3003 	add	r3, pc, r3
    983c:	e51b2048 	ldr	r2, [fp, #-72]	; 0xffffffb8
    9840:	e1a01202 	lsl	r1, r2, #4
    9844:	e51b204c 	ldr	r2, [fp, #-76]	; 0xffffffb4
    9848:	e0812002 	add	r2, r1, r2
    984c:	e7933102 	ldr	r3, [r3, r2, lsl #2]
    9850:	e3530001 	cmp	r3, #1
    9854:	1a000008 	bne	987c <hal_io_video_putc+0x738>
    9858:	e51b20d8 	ldr	r2, [fp, #-216]	; 0xffffff28
    985c:	e51b304c 	ldr	r3, [fp, #-76]	; 0xffffffb4
    9860:	e0820003 	add	r0, r2, r3
    9864:	e51b20dc 	ldr	r2, [fp, #-220]	; 0xffffff24
    9868:	e51b3048 	ldr	r3, [fp, #-72]	; 0xffffffb8
    986c:	e0823003 	add	r3, r2, r3
    9870:	e3e02000 	mvn	r2, #0
    9874:	e1a01003 	mov	r1, r3
    9878:	ebfffe1f 	bl	90fc <hal_io_video_putpixel>
    987c:	e51b304c 	ldr	r3, [fp, #-76]	; 0xffffffb4
    9880:	e2833001 	add	r3, r3, #1
    9884:	e50b304c 	str	r3, [fp, #-76]	; 0xffffffb4
    9888:	e51b304c 	ldr	r3, [fp, #-76]	; 0xffffffb4
    988c:	e353000f 	cmp	r3, #15
    9890:	daffffe7 	ble	9834 <hal_io_video_putc+0x6f0>
    9894:	e51b3048 	ldr	r3, [fp, #-72]	; 0xffffffb8
    9898:	e2833001 	add	r3, r3, #1
    989c:	e50b3048 	str	r3, [fp, #-72]	; 0xffffffb8
    98a0:	e51b3048 	ldr	r3, [fp, #-72]	; 0xffffffb8
    98a4:	e3530015 	cmp	r3, #21
    98a8:	daffffde 	ble	9828 <hal_io_video_putc+0x6e4>
    98ac:	ea000275 	b	a288 <hal_io_video_putc+0x1144>
    98b0:	e3a03000 	mov	r3, #0
    98b4:	e50b3050 	str	r3, [fp, #-80]	; 0xffffffb0
    98b8:	ea00001d 	b	9934 <hal_io_video_putc+0x7f0>
    98bc:	e3a03000 	mov	r3, #0
    98c0:	e50b3054 	str	r3, [fp, #-84]	; 0xffffffac
    98c4:	ea000014 	b	991c <hal_io_video_putc+0x7d8>
    98c8:	e59f39e8 	ldr	r3, [pc, #2536]	; a2b8 <hal_io_video_putc+0x1174>
    98cc:	e08f3003 	add	r3, pc, r3
    98d0:	e51b2050 	ldr	r2, [fp, #-80]	; 0xffffffb0
    98d4:	e1a01202 	lsl	r1, r2, #4
    98d8:	e51b2054 	ldr	r2, [fp, #-84]	; 0xffffffac
    98dc:	e0812002 	add	r2, r1, r2
    98e0:	e7933102 	ldr	r3, [r3, r2, lsl #2]
    98e4:	e3530001 	cmp	r3, #1
    98e8:	1a000008 	bne	9910 <hal_io_video_putc+0x7cc>
    98ec:	e51b20d8 	ldr	r2, [fp, #-216]	; 0xffffff28
    98f0:	e51b3054 	ldr	r3, [fp, #-84]	; 0xffffffac
    98f4:	e0820003 	add	r0, r2, r3
    98f8:	e51b20dc 	ldr	r2, [fp, #-220]	; 0xffffff24
    98fc:	e51b3050 	ldr	r3, [fp, #-80]	; 0xffffffb0
    9900:	e0823003 	add	r3, r2, r3
    9904:	e3e02000 	mvn	r2, #0
    9908:	e1a01003 	mov	r1, r3
    990c:	ebfffdfa 	bl	90fc <hal_io_video_putpixel>
    9910:	e51b3054 	ldr	r3, [fp, #-84]	; 0xffffffac
    9914:	e2833001 	add	r3, r3, #1
    9918:	e50b3054 	str	r3, [fp, #-84]	; 0xffffffac
    991c:	e51b3054 	ldr	r3, [fp, #-84]	; 0xffffffac
    9920:	e353000f 	cmp	r3, #15
    9924:	daffffe7 	ble	98c8 <hal_io_video_putc+0x784>
    9928:	e51b3050 	ldr	r3, [fp, #-80]	; 0xffffffb0
    992c:	e2833001 	add	r3, r3, #1
    9930:	e50b3050 	str	r3, [fp, #-80]	; 0xffffffb0
    9934:	e51b3050 	ldr	r3, [fp, #-80]	; 0xffffffb0
    9938:	e3530015 	cmp	r3, #21
    993c:	daffffde 	ble	98bc <hal_io_video_putc+0x778>
    9940:	ea000250 	b	a288 <hal_io_video_putc+0x1144>
    9944:	e3a03000 	mov	r3, #0
    9948:	e50b3058 	str	r3, [fp, #-88]	; 0xffffffa8
    994c:	ea00001d 	b	99c8 <hal_io_video_putc+0x884>
    9950:	e3a03000 	mov	r3, #0
    9954:	e50b305c 	str	r3, [fp, #-92]	; 0xffffffa4
    9958:	ea000014 	b	99b0 <hal_io_video_putc+0x86c>
    995c:	e59f3958 	ldr	r3, [pc, #2392]	; a2bc <hal_io_video_putc+0x1178>
    9960:	e08f3003 	add	r3, pc, r3
    9964:	e51b2058 	ldr	r2, [fp, #-88]	; 0xffffffa8
    9968:	e1a01202 	lsl	r1, r2, #4
    996c:	e51b205c 	ldr	r2, [fp, #-92]	; 0xffffffa4
    9970:	e0812002 	add	r2, r1, r2
    9974:	e7933102 	ldr	r3, [r3, r2, lsl #2]
    9978:	e3530001 	cmp	r3, #1
    997c:	1a000008 	bne	99a4 <hal_io_video_putc+0x860>
    9980:	e51b20d8 	ldr	r2, [fp, #-216]	; 0xffffff28
    9984:	e51b305c 	ldr	r3, [fp, #-92]	; 0xffffffa4
    9988:	e0820003 	add	r0, r2, r3
    998c:	e51b20dc 	ldr	r2, [fp, #-220]	; 0xffffff24
    9990:	e51b3058 	ldr	r3, [fp, #-88]	; 0xffffffa8
    9994:	e0823003 	add	r3, r2, r3
    9998:	e3e02000 	mvn	r2, #0
    999c:	e1a01003 	mov	r1, r3
    99a0:	ebfffdd5 	bl	90fc <hal_io_video_putpixel>
    99a4:	e51b305c 	ldr	r3, [fp, #-92]	; 0xffffffa4
    99a8:	e2833001 	add	r3, r3, #1
    99ac:	e50b305c 	str	r3, [fp, #-92]	; 0xffffffa4
    99b0:	e51b305c 	ldr	r3, [fp, #-92]	; 0xffffffa4
    99b4:	e353000f 	cmp	r3, #15
    99b8:	daffffe7 	ble	995c <hal_io_video_putc+0x818>
    99bc:	e51b3058 	ldr	r3, [fp, #-88]	; 0xffffffa8
    99c0:	e2833001 	add	r3, r3, #1
    99c4:	e50b3058 	str	r3, [fp, #-88]	; 0xffffffa8
    99c8:	e51b3058 	ldr	r3, [fp, #-88]	; 0xffffffa8
    99cc:	e3530015 	cmp	r3, #21
    99d0:	daffffde 	ble	9950 <hal_io_video_putc+0x80c>
    99d4:	ea00022b 	b	a288 <hal_io_video_putc+0x1144>
    99d8:	e3a03000 	mov	r3, #0
    99dc:	e50b3060 	str	r3, [fp, #-96]	; 0xffffffa0
    99e0:	ea00001d 	b	9a5c <hal_io_video_putc+0x918>
    99e4:	e3a03000 	mov	r3, #0
    99e8:	e50b3064 	str	r3, [fp, #-100]	; 0xffffff9c
    99ec:	ea000014 	b	9a44 <hal_io_video_putc+0x900>
    99f0:	e59f38c8 	ldr	r3, [pc, #2248]	; a2c0 <hal_io_video_putc+0x117c>
    99f4:	e08f3003 	add	r3, pc, r3
    99f8:	e51b2060 	ldr	r2, [fp, #-96]	; 0xffffffa0
    99fc:	e1a01202 	lsl	r1, r2, #4
    9a00:	e51b2064 	ldr	r2, [fp, #-100]	; 0xffffff9c
    9a04:	e0812002 	add	r2, r1, r2
    9a08:	e7933102 	ldr	r3, [r3, r2, lsl #2]
    9a0c:	e3530001 	cmp	r3, #1
    9a10:	1a000008 	bne	9a38 <hal_io_video_putc+0x8f4>
    9a14:	e51b20d8 	ldr	r2, [fp, #-216]	; 0xffffff28
    9a18:	e51b3064 	ldr	r3, [fp, #-100]	; 0xffffff9c
    9a1c:	e0820003 	add	r0, r2, r3
    9a20:	e51b20dc 	ldr	r2, [fp, #-220]	; 0xffffff24
    9a24:	e51b3060 	ldr	r3, [fp, #-96]	; 0xffffffa0
    9a28:	e0823003 	add	r3, r2, r3
    9a2c:	e3e02000 	mvn	r2, #0
    9a30:	e1a01003 	mov	r1, r3
    9a34:	ebfffdb0 	bl	90fc <hal_io_video_putpixel>
    9a38:	e51b3064 	ldr	r3, [fp, #-100]	; 0xffffff9c
    9a3c:	e2833001 	add	r3, r3, #1
    9a40:	e50b3064 	str	r3, [fp, #-100]	; 0xffffff9c
    9a44:	e51b3064 	ldr	r3, [fp, #-100]	; 0xffffff9c
    9a48:	e353000f 	cmp	r3, #15
    9a4c:	daffffe7 	ble	99f0 <hal_io_video_putc+0x8ac>
    9a50:	e51b3060 	ldr	r3, [fp, #-96]	; 0xffffffa0
    9a54:	e2833001 	add	r3, r3, #1
    9a58:	e50b3060 	str	r3, [fp, #-96]	; 0xffffffa0
    9a5c:	e51b3060 	ldr	r3, [fp, #-96]	; 0xffffffa0
    9a60:	e3530015 	cmp	r3, #21
    9a64:	daffffde 	ble	99e4 <hal_io_video_putc+0x8a0>
    9a68:	ea000206 	b	a288 <hal_io_video_putc+0x1144>
    9a6c:	e3a03000 	mov	r3, #0
    9a70:	e50b3068 	str	r3, [fp, #-104]	; 0xffffff98
    9a74:	ea00001d 	b	9af0 <hal_io_video_putc+0x9ac>
    9a78:	e3a03000 	mov	r3, #0
    9a7c:	e50b306c 	str	r3, [fp, #-108]	; 0xffffff94
    9a80:	ea000014 	b	9ad8 <hal_io_video_putc+0x994>
    9a84:	e59f3838 	ldr	r3, [pc, #2104]	; a2c4 <hal_io_video_putc+0x1180>
    9a88:	e08f3003 	add	r3, pc, r3
    9a8c:	e51b2068 	ldr	r2, [fp, #-104]	; 0xffffff98
    9a90:	e1a01202 	lsl	r1, r2, #4
    9a94:	e51b206c 	ldr	r2, [fp, #-108]	; 0xffffff94
    9a98:	e0812002 	add	r2, r1, r2
    9a9c:	e7933102 	ldr	r3, [r3, r2, lsl #2]
    9aa0:	e3530001 	cmp	r3, #1
    9aa4:	1a000008 	bne	9acc <hal_io_video_putc+0x988>
    9aa8:	e51b20d8 	ldr	r2, [fp, #-216]	; 0xffffff28
    9aac:	e51b306c 	ldr	r3, [fp, #-108]	; 0xffffff94
    9ab0:	e0820003 	add	r0, r2, r3
    9ab4:	e51b20dc 	ldr	r2, [fp, #-220]	; 0xffffff24
    9ab8:	e51b3068 	ldr	r3, [fp, #-104]	; 0xffffff98
    9abc:	e0823003 	add	r3, r2, r3
    9ac0:	e3e02000 	mvn	r2, #0
    9ac4:	e1a01003 	mov	r1, r3
    9ac8:	ebfffd8b 	bl	90fc <hal_io_video_putpixel>
    9acc:	e51b306c 	ldr	r3, [fp, #-108]	; 0xffffff94
    9ad0:	e2833001 	add	r3, r3, #1
    9ad4:	e50b306c 	str	r3, [fp, #-108]	; 0xffffff94
    9ad8:	e51b306c 	ldr	r3, [fp, #-108]	; 0xffffff94
    9adc:	e353000f 	cmp	r3, #15
    9ae0:	daffffe7 	ble	9a84 <hal_io_video_putc+0x940>
    9ae4:	e51b3068 	ldr	r3, [fp, #-104]	; 0xffffff98
    9ae8:	e2833001 	add	r3, r3, #1
    9aec:	e50b3068 	str	r3, [fp, #-104]	; 0xffffff98
    9af0:	e51b3068 	ldr	r3, [fp, #-104]	; 0xffffff98
    9af4:	e3530015 	cmp	r3, #21
    9af8:	daffffde 	ble	9a78 <hal_io_video_putc+0x934>
    9afc:	ea0001e1 	b	a288 <hal_io_video_putc+0x1144>
    9b00:	e3a03000 	mov	r3, #0
    9b04:	e50b3070 	str	r3, [fp, #-112]	; 0xffffff90
    9b08:	ea00001d 	b	9b84 <hal_io_video_putc+0xa40>
    9b0c:	e3a03000 	mov	r3, #0
    9b10:	e50b3074 	str	r3, [fp, #-116]	; 0xffffff8c
    9b14:	ea000014 	b	9b6c <hal_io_video_putc+0xa28>
    9b18:	e59f37a8 	ldr	r3, [pc, #1960]	; a2c8 <hal_io_video_putc+0x1184>
    9b1c:	e08f3003 	add	r3, pc, r3
    9b20:	e51b2070 	ldr	r2, [fp, #-112]	; 0xffffff90
    9b24:	e1a01202 	lsl	r1, r2, #4
    9b28:	e51b2074 	ldr	r2, [fp, #-116]	; 0xffffff8c
    9b2c:	e0812002 	add	r2, r1, r2
    9b30:	e7933102 	ldr	r3, [r3, r2, lsl #2]
    9b34:	e3530001 	cmp	r3, #1
    9b38:	1a000008 	bne	9b60 <hal_io_video_putc+0xa1c>
    9b3c:	e51b20d8 	ldr	r2, [fp, #-216]	; 0xffffff28
    9b40:	e51b3074 	ldr	r3, [fp, #-116]	; 0xffffff8c
    9b44:	e0820003 	add	r0, r2, r3
    9b48:	e51b20dc 	ldr	r2, [fp, #-220]	; 0xffffff24
    9b4c:	e51b3070 	ldr	r3, [fp, #-112]	; 0xffffff90
    9b50:	e0823003 	add	r3, r2, r3
    9b54:	e3e02000 	mvn	r2, #0
    9b58:	e1a01003 	mov	r1, r3
    9b5c:	ebfffd66 	bl	90fc <hal_io_video_putpixel>
    9b60:	e51b3074 	ldr	r3, [fp, #-116]	; 0xffffff8c
    9b64:	e2833001 	add	r3, r3, #1
    9b68:	e50b3074 	str	r3, [fp, #-116]	; 0xffffff8c
    9b6c:	e51b3074 	ldr	r3, [fp, #-116]	; 0xffffff8c
    9b70:	e353000f 	cmp	r3, #15
    9b74:	daffffe7 	ble	9b18 <hal_io_video_putc+0x9d4>
    9b78:	e51b3070 	ldr	r3, [fp, #-112]	; 0xffffff90
    9b7c:	e2833001 	add	r3, r3, #1
    9b80:	e50b3070 	str	r3, [fp, #-112]	; 0xffffff90
    9b84:	e51b3070 	ldr	r3, [fp, #-112]	; 0xffffff90
    9b88:	e3530015 	cmp	r3, #21
    9b8c:	daffffde 	ble	9b0c <hal_io_video_putc+0x9c8>
    9b90:	ea0001bc 	b	a288 <hal_io_video_putc+0x1144>
    9b94:	e3a03000 	mov	r3, #0
    9b98:	e50b3078 	str	r3, [fp, #-120]	; 0xffffff88
    9b9c:	ea00001d 	b	9c18 <hal_io_video_putc+0xad4>
    9ba0:	e3a03000 	mov	r3, #0
    9ba4:	e50b307c 	str	r3, [fp, #-124]	; 0xffffff84
    9ba8:	ea000014 	b	9c00 <hal_io_video_putc+0xabc>
    9bac:	e59f3718 	ldr	r3, [pc, #1816]	; a2cc <hal_io_video_putc+0x1188>
    9bb0:	e08f3003 	add	r3, pc, r3
    9bb4:	e51b2078 	ldr	r2, [fp, #-120]	; 0xffffff88
    9bb8:	e1a01202 	lsl	r1, r2, #4
    9bbc:	e51b207c 	ldr	r2, [fp, #-124]	; 0xffffff84
    9bc0:	e0812002 	add	r2, r1, r2
    9bc4:	e7933102 	ldr	r3, [r3, r2, lsl #2]
    9bc8:	e3530001 	cmp	r3, #1
    9bcc:	1a000008 	bne	9bf4 <hal_io_video_putc+0xab0>
    9bd0:	e51b20d8 	ldr	r2, [fp, #-216]	; 0xffffff28
    9bd4:	e51b307c 	ldr	r3, [fp, #-124]	; 0xffffff84
    9bd8:	e0820003 	add	r0, r2, r3
    9bdc:	e51b20dc 	ldr	r2, [fp, #-220]	; 0xffffff24
    9be0:	e51b3078 	ldr	r3, [fp, #-120]	; 0xffffff88
    9be4:	e0823003 	add	r3, r2, r3
    9be8:	e3e02000 	mvn	r2, #0
    9bec:	e1a01003 	mov	r1, r3
    9bf0:	ebfffd41 	bl	90fc <hal_io_video_putpixel>
    9bf4:	e51b307c 	ldr	r3, [fp, #-124]	; 0xffffff84
    9bf8:	e2833001 	add	r3, r3, #1
    9bfc:	e50b307c 	str	r3, [fp, #-124]	; 0xffffff84
    9c00:	e51b307c 	ldr	r3, [fp, #-124]	; 0xffffff84
    9c04:	e353000f 	cmp	r3, #15
    9c08:	daffffe7 	ble	9bac <hal_io_video_putc+0xa68>
    9c0c:	e51b3078 	ldr	r3, [fp, #-120]	; 0xffffff88
    9c10:	e2833001 	add	r3, r3, #1
    9c14:	e50b3078 	str	r3, [fp, #-120]	; 0xffffff88
    9c18:	e51b3078 	ldr	r3, [fp, #-120]	; 0xffffff88
    9c1c:	e3530015 	cmp	r3, #21
    9c20:	daffffde 	ble	9ba0 <hal_io_video_putc+0xa5c>
    9c24:	ea000197 	b	a288 <hal_io_video_putc+0x1144>
    9c28:	e3a03000 	mov	r3, #0
    9c2c:	e50b3080 	str	r3, [fp, #-128]	; 0xffffff80
    9c30:	ea00001d 	b	9cac <hal_io_video_putc+0xb68>
    9c34:	e3a03000 	mov	r3, #0
    9c38:	e50b3084 	str	r3, [fp, #-132]	; 0xffffff7c
    9c3c:	ea000014 	b	9c94 <hal_io_video_putc+0xb50>
    9c40:	e59f3688 	ldr	r3, [pc, #1672]	; a2d0 <hal_io_video_putc+0x118c>
    9c44:	e08f3003 	add	r3, pc, r3
    9c48:	e51b2080 	ldr	r2, [fp, #-128]	; 0xffffff80
    9c4c:	e1a01202 	lsl	r1, r2, #4
    9c50:	e51b2084 	ldr	r2, [fp, #-132]	; 0xffffff7c
    9c54:	e0812002 	add	r2, r1, r2
    9c58:	e7933102 	ldr	r3, [r3, r2, lsl #2]
    9c5c:	e3530001 	cmp	r3, #1
    9c60:	1a000008 	bne	9c88 <hal_io_video_putc+0xb44>
    9c64:	e51b20d8 	ldr	r2, [fp, #-216]	; 0xffffff28
    9c68:	e51b3084 	ldr	r3, [fp, #-132]	; 0xffffff7c
    9c6c:	e0820003 	add	r0, r2, r3
    9c70:	e51b20dc 	ldr	r2, [fp, #-220]	; 0xffffff24
    9c74:	e51b3080 	ldr	r3, [fp, #-128]	; 0xffffff80
    9c78:	e0823003 	add	r3, r2, r3
    9c7c:	e3e02000 	mvn	r2, #0
    9c80:	e1a01003 	mov	r1, r3
    9c84:	ebfffd1c 	bl	90fc <hal_io_video_putpixel>
    9c88:	e51b3084 	ldr	r3, [fp, #-132]	; 0xffffff7c
    9c8c:	e2833001 	add	r3, r3, #1
    9c90:	e50b3084 	str	r3, [fp, #-132]	; 0xffffff7c
    9c94:	e51b3084 	ldr	r3, [fp, #-132]	; 0xffffff7c
    9c98:	e353000f 	cmp	r3, #15
    9c9c:	daffffe7 	ble	9c40 <hal_io_video_putc+0xafc>
    9ca0:	e51b3080 	ldr	r3, [fp, #-128]	; 0xffffff80
    9ca4:	e2833001 	add	r3, r3, #1
    9ca8:	e50b3080 	str	r3, [fp, #-128]	; 0xffffff80
    9cac:	e51b3080 	ldr	r3, [fp, #-128]	; 0xffffff80
    9cb0:	e3530015 	cmp	r3, #21
    9cb4:	daffffde 	ble	9c34 <hal_io_video_putc+0xaf0>
    9cb8:	ea000172 	b	a288 <hal_io_video_putc+0x1144>
    9cbc:	e3a03000 	mov	r3, #0
    9cc0:	e50b3088 	str	r3, [fp, #-136]	; 0xffffff78
    9cc4:	ea00001d 	b	9d40 <hal_io_video_putc+0xbfc>
    9cc8:	e3a03000 	mov	r3, #0
    9ccc:	e50b308c 	str	r3, [fp, #-140]	; 0xffffff74
    9cd0:	ea000014 	b	9d28 <hal_io_video_putc+0xbe4>
    9cd4:	e59f35f8 	ldr	r3, [pc, #1528]	; a2d4 <hal_io_video_putc+0x1190>
    9cd8:	e08f3003 	add	r3, pc, r3
    9cdc:	e51b2088 	ldr	r2, [fp, #-136]	; 0xffffff78
    9ce0:	e1a01202 	lsl	r1, r2, #4
    9ce4:	e51b208c 	ldr	r2, [fp, #-140]	; 0xffffff74
    9ce8:	e0812002 	add	r2, r1, r2
    9cec:	e7933102 	ldr	r3, [r3, r2, lsl #2]
    9cf0:	e3530001 	cmp	r3, #1
    9cf4:	1a000008 	bne	9d1c <hal_io_video_putc+0xbd8>
    9cf8:	e51b20d8 	ldr	r2, [fp, #-216]	; 0xffffff28
    9cfc:	e51b308c 	ldr	r3, [fp, #-140]	; 0xffffff74
    9d00:	e0820003 	add	r0, r2, r3
    9d04:	e51b20dc 	ldr	r2, [fp, #-220]	; 0xffffff24
    9d08:	e51b3088 	ldr	r3, [fp, #-136]	; 0xffffff78
    9d0c:	e0823003 	add	r3, r2, r3
    9d10:	e3e02000 	mvn	r2, #0
    9d14:	e1a01003 	mov	r1, r3
    9d18:	ebfffcf7 	bl	90fc <hal_io_video_putpixel>
    9d1c:	e51b308c 	ldr	r3, [fp, #-140]	; 0xffffff74
    9d20:	e2833001 	add	r3, r3, #1
    9d24:	e50b308c 	str	r3, [fp, #-140]	; 0xffffff74
    9d28:	e51b308c 	ldr	r3, [fp, #-140]	; 0xffffff74
    9d2c:	e353000f 	cmp	r3, #15
    9d30:	daffffe7 	ble	9cd4 <hal_io_video_putc+0xb90>
    9d34:	e51b3088 	ldr	r3, [fp, #-136]	; 0xffffff78
    9d38:	e2833001 	add	r3, r3, #1
    9d3c:	e50b3088 	str	r3, [fp, #-136]	; 0xffffff78
    9d40:	e51b3088 	ldr	r3, [fp, #-136]	; 0xffffff78
    9d44:	e3530015 	cmp	r3, #21
    9d48:	daffffde 	ble	9cc8 <hal_io_video_putc+0xb84>
    9d4c:	ea00014d 	b	a288 <hal_io_video_putc+0x1144>
    9d50:	e3a03000 	mov	r3, #0
    9d54:	e50b3090 	str	r3, [fp, #-144]	; 0xffffff70
    9d58:	ea00001d 	b	9dd4 <hal_io_video_putc+0xc90>
    9d5c:	e3a03000 	mov	r3, #0
    9d60:	e50b3094 	str	r3, [fp, #-148]	; 0xffffff6c
    9d64:	ea000014 	b	9dbc <hal_io_video_putc+0xc78>
    9d68:	e59f3568 	ldr	r3, [pc, #1384]	; a2d8 <hal_io_video_putc+0x1194>
    9d6c:	e08f3003 	add	r3, pc, r3
    9d70:	e51b2090 	ldr	r2, [fp, #-144]	; 0xffffff70
    9d74:	e1a01202 	lsl	r1, r2, #4
    9d78:	e51b2094 	ldr	r2, [fp, #-148]	; 0xffffff6c
    9d7c:	e0812002 	add	r2, r1, r2
    9d80:	e7933102 	ldr	r3, [r3, r2, lsl #2]
    9d84:	e3530001 	cmp	r3, #1
    9d88:	1a000008 	bne	9db0 <hal_io_video_putc+0xc6c>
    9d8c:	e51b20d8 	ldr	r2, [fp, #-216]	; 0xffffff28
    9d90:	e51b3094 	ldr	r3, [fp, #-148]	; 0xffffff6c
    9d94:	e0820003 	add	r0, r2, r3
    9d98:	e51b20dc 	ldr	r2, [fp, #-220]	; 0xffffff24
    9d9c:	e51b3090 	ldr	r3, [fp, #-144]	; 0xffffff70
    9da0:	e0823003 	add	r3, r2, r3
    9da4:	e3e02000 	mvn	r2, #0
    9da8:	e1a01003 	mov	r1, r3
    9dac:	ebfffcd2 	bl	90fc <hal_io_video_putpixel>
    9db0:	e51b3094 	ldr	r3, [fp, #-148]	; 0xffffff6c
    9db4:	e2833001 	add	r3, r3, #1
    9db8:	e50b3094 	str	r3, [fp, #-148]	; 0xffffff6c
    9dbc:	e51b3094 	ldr	r3, [fp, #-148]	; 0xffffff6c
    9dc0:	e353000f 	cmp	r3, #15
    9dc4:	daffffe7 	ble	9d68 <hal_io_video_putc+0xc24>
    9dc8:	e51b3090 	ldr	r3, [fp, #-144]	; 0xffffff70
    9dcc:	e2833001 	add	r3, r3, #1
    9dd0:	e50b3090 	str	r3, [fp, #-144]	; 0xffffff70
    9dd4:	e51b3090 	ldr	r3, [fp, #-144]	; 0xffffff70
    9dd8:	e3530015 	cmp	r3, #21
    9ddc:	daffffde 	ble	9d5c <hal_io_video_putc+0xc18>
    9de0:	ea000128 	b	a288 <hal_io_video_putc+0x1144>
    9de4:	e3a03000 	mov	r3, #0
    9de8:	e50b3098 	str	r3, [fp, #-152]	; 0xffffff68
    9dec:	ea00001d 	b	9e68 <hal_io_video_putc+0xd24>
    9df0:	e3a03000 	mov	r3, #0
    9df4:	e50b309c 	str	r3, [fp, #-156]	; 0xffffff64
    9df8:	ea000014 	b	9e50 <hal_io_video_putc+0xd0c>
    9dfc:	e59f34d8 	ldr	r3, [pc, #1240]	; a2dc <hal_io_video_putc+0x1198>
    9e00:	e08f3003 	add	r3, pc, r3
    9e04:	e51b2098 	ldr	r2, [fp, #-152]	; 0xffffff68
    9e08:	e1a01202 	lsl	r1, r2, #4
    9e0c:	e51b209c 	ldr	r2, [fp, #-156]	; 0xffffff64
    9e10:	e0812002 	add	r2, r1, r2
    9e14:	e7933102 	ldr	r3, [r3, r2, lsl #2]
    9e18:	e3530001 	cmp	r3, #1
    9e1c:	1a000008 	bne	9e44 <hal_io_video_putc+0xd00>
    9e20:	e51b20d8 	ldr	r2, [fp, #-216]	; 0xffffff28
    9e24:	e51b309c 	ldr	r3, [fp, #-156]	; 0xffffff64
    9e28:	e0820003 	add	r0, r2, r3
    9e2c:	e51b20dc 	ldr	r2, [fp, #-220]	; 0xffffff24
    9e30:	e51b3098 	ldr	r3, [fp, #-152]	; 0xffffff68
    9e34:	e0823003 	add	r3, r2, r3
    9e38:	e3e02000 	mvn	r2, #0
    9e3c:	e1a01003 	mov	r1, r3
    9e40:	ebfffcad 	bl	90fc <hal_io_video_putpixel>
    9e44:	e51b309c 	ldr	r3, [fp, #-156]	; 0xffffff64
    9e48:	e2833001 	add	r3, r3, #1
    9e4c:	e50b309c 	str	r3, [fp, #-156]	; 0xffffff64
    9e50:	e51b309c 	ldr	r3, [fp, #-156]	; 0xffffff64
    9e54:	e353000f 	cmp	r3, #15
    9e58:	daffffe7 	ble	9dfc <hal_io_video_putc+0xcb8>
    9e5c:	e51b3098 	ldr	r3, [fp, #-152]	; 0xffffff68
    9e60:	e2833001 	add	r3, r3, #1
    9e64:	e50b3098 	str	r3, [fp, #-152]	; 0xffffff68
    9e68:	e51b3098 	ldr	r3, [fp, #-152]	; 0xffffff68
    9e6c:	e3530015 	cmp	r3, #21
    9e70:	daffffde 	ble	9df0 <hal_io_video_putc+0xcac>
    9e74:	ea000103 	b	a288 <hal_io_video_putc+0x1144>
    9e78:	e3a03000 	mov	r3, #0
    9e7c:	e50b30a0 	str	r3, [fp, #-160]	; 0xffffff60
    9e80:	ea00001d 	b	9efc <hal_io_video_putc+0xdb8>
    9e84:	e3a03000 	mov	r3, #0
    9e88:	e50b30a4 	str	r3, [fp, #-164]	; 0xffffff5c
    9e8c:	ea000014 	b	9ee4 <hal_io_video_putc+0xda0>
    9e90:	e59f3448 	ldr	r3, [pc, #1096]	; a2e0 <hal_io_video_putc+0x119c>
    9e94:	e08f3003 	add	r3, pc, r3
    9e98:	e51b20a0 	ldr	r2, [fp, #-160]	; 0xffffff60
    9e9c:	e1a01202 	lsl	r1, r2, #4
    9ea0:	e51b20a4 	ldr	r2, [fp, #-164]	; 0xffffff5c
    9ea4:	e0812002 	add	r2, r1, r2
    9ea8:	e7933102 	ldr	r3, [r3, r2, lsl #2]
    9eac:	e3530001 	cmp	r3, #1
    9eb0:	1a000008 	bne	9ed8 <hal_io_video_putc+0xd94>
    9eb4:	e51b20d8 	ldr	r2, [fp, #-216]	; 0xffffff28
    9eb8:	e51b30a4 	ldr	r3, [fp, #-164]	; 0xffffff5c
    9ebc:	e0820003 	add	r0, r2, r3
    9ec0:	e51b20dc 	ldr	r2, [fp, #-220]	; 0xffffff24
    9ec4:	e51b30a0 	ldr	r3, [fp, #-160]	; 0xffffff60
    9ec8:	e0823003 	add	r3, r2, r3
    9ecc:	e3e02000 	mvn	r2, #0
    9ed0:	e1a01003 	mov	r1, r3
    9ed4:	ebfffc88 	bl	90fc <hal_io_video_putpixel>
    9ed8:	e51b30a4 	ldr	r3, [fp, #-164]	; 0xffffff5c
    9edc:	e2833001 	add	r3, r3, #1
    9ee0:	e50b30a4 	str	r3, [fp, #-164]	; 0xffffff5c
    9ee4:	e51b30a4 	ldr	r3, [fp, #-164]	; 0xffffff5c
    9ee8:	e353000f 	cmp	r3, #15
    9eec:	daffffe7 	ble	9e90 <hal_io_video_putc+0xd4c>
    9ef0:	e51b30a0 	ldr	r3, [fp, #-160]	; 0xffffff60
    9ef4:	e2833001 	add	r3, r3, #1
    9ef8:	e50b30a0 	str	r3, [fp, #-160]	; 0xffffff60
    9efc:	e51b30a0 	ldr	r3, [fp, #-160]	; 0xffffff60
    9f00:	e3530015 	cmp	r3, #21
    9f04:	daffffde 	ble	9e84 <hal_io_video_putc+0xd40>
    9f08:	ea0000de 	b	a288 <hal_io_video_putc+0x1144>
    9f0c:	e3a03000 	mov	r3, #0
    9f10:	e50b30a8 	str	r3, [fp, #-168]	; 0xffffff58
    9f14:	ea00001d 	b	9f90 <hal_io_video_putc+0xe4c>
    9f18:	e3a03000 	mov	r3, #0
    9f1c:	e50b30ac 	str	r3, [fp, #-172]	; 0xffffff54
    9f20:	ea000014 	b	9f78 <hal_io_video_putc+0xe34>
    9f24:	e59f33b8 	ldr	r3, [pc, #952]	; a2e4 <hal_io_video_putc+0x11a0>
    9f28:	e08f3003 	add	r3, pc, r3
    9f2c:	e51b20a8 	ldr	r2, [fp, #-168]	; 0xffffff58
    9f30:	e1a01202 	lsl	r1, r2, #4
    9f34:	e51b20ac 	ldr	r2, [fp, #-172]	; 0xffffff54
    9f38:	e0812002 	add	r2, r1, r2
    9f3c:	e7933102 	ldr	r3, [r3, r2, lsl #2]
    9f40:	e3530001 	cmp	r3, #1
    9f44:	1a000008 	bne	9f6c <hal_io_video_putc+0xe28>
    9f48:	e51b20d8 	ldr	r2, [fp, #-216]	; 0xffffff28
    9f4c:	e51b30ac 	ldr	r3, [fp, #-172]	; 0xffffff54
    9f50:	e0820003 	add	r0, r2, r3
    9f54:	e51b20dc 	ldr	r2, [fp, #-220]	; 0xffffff24
    9f58:	e51b30a8 	ldr	r3, [fp, #-168]	; 0xffffff58
    9f5c:	e0823003 	add	r3, r2, r3
    9f60:	e3e02000 	mvn	r2, #0
    9f64:	e1a01003 	mov	r1, r3
    9f68:	ebfffc63 	bl	90fc <hal_io_video_putpixel>
    9f6c:	e51b30ac 	ldr	r3, [fp, #-172]	; 0xffffff54
    9f70:	e2833001 	add	r3, r3, #1
    9f74:	e50b30ac 	str	r3, [fp, #-172]	; 0xffffff54
    9f78:	e51b30ac 	ldr	r3, [fp, #-172]	; 0xffffff54
    9f7c:	e353000f 	cmp	r3, #15
    9f80:	daffffe7 	ble	9f24 <hal_io_video_putc+0xde0>
    9f84:	e51b30a8 	ldr	r3, [fp, #-168]	; 0xffffff58
    9f88:	e2833001 	add	r3, r3, #1
    9f8c:	e50b30a8 	str	r3, [fp, #-168]	; 0xffffff58
    9f90:	e51b30a8 	ldr	r3, [fp, #-168]	; 0xffffff58
    9f94:	e3530015 	cmp	r3, #21
    9f98:	daffffde 	ble	9f18 <hal_io_video_putc+0xdd4>
    9f9c:	ea0000b9 	b	a288 <hal_io_video_putc+0x1144>
    9fa0:	e3a03000 	mov	r3, #0
    9fa4:	e50b30b0 	str	r3, [fp, #-176]	; 0xffffff50
    9fa8:	ea00001d 	b	a024 <hal_io_video_putc+0xee0>
    9fac:	e3a03000 	mov	r3, #0
    9fb0:	e50b30b4 	str	r3, [fp, #-180]	; 0xffffff4c
    9fb4:	ea000014 	b	a00c <hal_io_video_putc+0xec8>
    9fb8:	e59f3328 	ldr	r3, [pc, #808]	; a2e8 <hal_io_video_putc+0x11a4>
    9fbc:	e08f3003 	add	r3, pc, r3
    9fc0:	e51b20b0 	ldr	r2, [fp, #-176]	; 0xffffff50
    9fc4:	e1a01202 	lsl	r1, r2, #4
    9fc8:	e51b20b4 	ldr	r2, [fp, #-180]	; 0xffffff4c
    9fcc:	e0812002 	add	r2, r1, r2
    9fd0:	e7933102 	ldr	r3, [r3, r2, lsl #2]
    9fd4:	e3530001 	cmp	r3, #1
    9fd8:	1a000008 	bne	a000 <hal_io_video_putc+0xebc>
    9fdc:	e51b20d8 	ldr	r2, [fp, #-216]	; 0xffffff28
    9fe0:	e51b30b4 	ldr	r3, [fp, #-180]	; 0xffffff4c
    9fe4:	e0820003 	add	r0, r2, r3
    9fe8:	e51b20dc 	ldr	r2, [fp, #-220]	; 0xffffff24
    9fec:	e51b30b0 	ldr	r3, [fp, #-176]	; 0xffffff50
    9ff0:	e0823003 	add	r3, r2, r3
    9ff4:	e3e02000 	mvn	r2, #0
    9ff8:	e1a01003 	mov	r1, r3
    9ffc:	ebfffc3e 	bl	90fc <hal_io_video_putpixel>
    a000:	e51b30b4 	ldr	r3, [fp, #-180]	; 0xffffff4c
    a004:	e2833001 	add	r3, r3, #1
    a008:	e50b30b4 	str	r3, [fp, #-180]	; 0xffffff4c
    a00c:	e51b30b4 	ldr	r3, [fp, #-180]	; 0xffffff4c
    a010:	e353000f 	cmp	r3, #15
    a014:	daffffe7 	ble	9fb8 <hal_io_video_putc+0xe74>
    a018:	e51b30b0 	ldr	r3, [fp, #-176]	; 0xffffff50
    a01c:	e2833001 	add	r3, r3, #1
    a020:	e50b30b0 	str	r3, [fp, #-176]	; 0xffffff50
    a024:	e51b30b0 	ldr	r3, [fp, #-176]	; 0xffffff50
    a028:	e3530015 	cmp	r3, #21
    a02c:	daffffde 	ble	9fac <hal_io_video_putc+0xe68>
    a030:	ea000094 	b	a288 <hal_io_video_putc+0x1144>
    a034:	e3a03000 	mov	r3, #0
    a038:	e50b30b8 	str	r3, [fp, #-184]	; 0xffffff48
    a03c:	ea00001d 	b	a0b8 <hal_io_video_putc+0xf74>
    a040:	e3a03000 	mov	r3, #0
    a044:	e50b30bc 	str	r3, [fp, #-188]	; 0xffffff44
    a048:	ea000014 	b	a0a0 <hal_io_video_putc+0xf5c>
    a04c:	e59f3298 	ldr	r3, [pc, #664]	; a2ec <hal_io_video_putc+0x11a8>
    a050:	e08f3003 	add	r3, pc, r3
    a054:	e51b20b8 	ldr	r2, [fp, #-184]	; 0xffffff48
    a058:	e1a01202 	lsl	r1, r2, #4
    a05c:	e51b20bc 	ldr	r2, [fp, #-188]	; 0xffffff44
    a060:	e0812002 	add	r2, r1, r2
    a064:	e7933102 	ldr	r3, [r3, r2, lsl #2]
    a068:	e3530001 	cmp	r3, #1
    a06c:	1a000008 	bne	a094 <hal_io_video_putc+0xf50>
    a070:	e51b20d8 	ldr	r2, [fp, #-216]	; 0xffffff28
    a074:	e51b30bc 	ldr	r3, [fp, #-188]	; 0xffffff44
    a078:	e0820003 	add	r0, r2, r3
    a07c:	e51b20dc 	ldr	r2, [fp, #-220]	; 0xffffff24
    a080:	e51b30b8 	ldr	r3, [fp, #-184]	; 0xffffff48
    a084:	e0823003 	add	r3, r2, r3
    a088:	e3e02000 	mvn	r2, #0
    a08c:	e1a01003 	mov	r1, r3
    a090:	ebfffc19 	bl	90fc <hal_io_video_putpixel>
    a094:	e51b30bc 	ldr	r3, [fp, #-188]	; 0xffffff44
    a098:	e2833001 	add	r3, r3, #1
    a09c:	e50b30bc 	str	r3, [fp, #-188]	; 0xffffff44
    a0a0:	e51b30bc 	ldr	r3, [fp, #-188]	; 0xffffff44
    a0a4:	e353000f 	cmp	r3, #15
    a0a8:	daffffe7 	ble	a04c <hal_io_video_putc+0xf08>
    a0ac:	e51b30b8 	ldr	r3, [fp, #-184]	; 0xffffff48
    a0b0:	e2833001 	add	r3, r3, #1
    a0b4:	e50b30b8 	str	r3, [fp, #-184]	; 0xffffff48
    a0b8:	e51b30b8 	ldr	r3, [fp, #-184]	; 0xffffff48
    a0bc:	e3530015 	cmp	r3, #21
    a0c0:	daffffde 	ble	a040 <hal_io_video_putc+0xefc>
    a0c4:	ea00006f 	b	a288 <hal_io_video_putc+0x1144>
    a0c8:	e3a03000 	mov	r3, #0
    a0cc:	e50b30c0 	str	r3, [fp, #-192]	; 0xffffff40
    a0d0:	ea00001d 	b	a14c <hal_io_video_putc+0x1008>
    a0d4:	e3a03000 	mov	r3, #0
    a0d8:	e50b30c4 	str	r3, [fp, #-196]	; 0xffffff3c
    a0dc:	ea000014 	b	a134 <hal_io_video_putc+0xff0>
    a0e0:	e59f3208 	ldr	r3, [pc, #520]	; a2f0 <hal_io_video_putc+0x11ac>
    a0e4:	e08f3003 	add	r3, pc, r3
    a0e8:	e51b20c0 	ldr	r2, [fp, #-192]	; 0xffffff40
    a0ec:	e1a01202 	lsl	r1, r2, #4
    a0f0:	e51b20c4 	ldr	r2, [fp, #-196]	; 0xffffff3c
    a0f4:	e0812002 	add	r2, r1, r2
    a0f8:	e7933102 	ldr	r3, [r3, r2, lsl #2]
    a0fc:	e3530001 	cmp	r3, #1
    a100:	1a000008 	bne	a128 <hal_io_video_putc+0xfe4>
    a104:	e51b20d8 	ldr	r2, [fp, #-216]	; 0xffffff28
    a108:	e51b30c4 	ldr	r3, [fp, #-196]	; 0xffffff3c
    a10c:	e0820003 	add	r0, r2, r3
    a110:	e51b20dc 	ldr	r2, [fp, #-220]	; 0xffffff24
    a114:	e51b30c0 	ldr	r3, [fp, #-192]	; 0xffffff40
    a118:	e0823003 	add	r3, r2, r3
    a11c:	e3e02000 	mvn	r2, #0
    a120:	e1a01003 	mov	r1, r3
    a124:	ebfffbf4 	bl	90fc <hal_io_video_putpixel>
    a128:	e51b30c4 	ldr	r3, [fp, #-196]	; 0xffffff3c
    a12c:	e2833001 	add	r3, r3, #1
    a130:	e50b30c4 	str	r3, [fp, #-196]	; 0xffffff3c
    a134:	e51b30c4 	ldr	r3, [fp, #-196]	; 0xffffff3c
    a138:	e353000f 	cmp	r3, #15
    a13c:	daffffe7 	ble	a0e0 <hal_io_video_putc+0xf9c>
    a140:	e51b30c0 	ldr	r3, [fp, #-192]	; 0xffffff40
    a144:	e2833001 	add	r3, r3, #1
    a148:	e50b30c0 	str	r3, [fp, #-192]	; 0xffffff40
    a14c:	e51b30c0 	ldr	r3, [fp, #-192]	; 0xffffff40
    a150:	e3530015 	cmp	r3, #21
    a154:	daffffde 	ble	a0d4 <hal_io_video_putc+0xf90>
    a158:	ea00004a 	b	a288 <hal_io_video_putc+0x1144>
    a15c:	e3a03000 	mov	r3, #0
    a160:	e50b30c8 	str	r3, [fp, #-200]	; 0xffffff38
    a164:	ea00001d 	b	a1e0 <hal_io_video_putc+0x109c>
    a168:	e3a03000 	mov	r3, #0
    a16c:	e50b30cc 	str	r3, [fp, #-204]	; 0xffffff34
    a170:	ea000014 	b	a1c8 <hal_io_video_putc+0x1084>
    a174:	e59f3178 	ldr	r3, [pc, #376]	; a2f4 <hal_io_video_putc+0x11b0>
    a178:	e08f3003 	add	r3, pc, r3
    a17c:	e51b20c8 	ldr	r2, [fp, #-200]	; 0xffffff38
    a180:	e1a01202 	lsl	r1, r2, #4
    a184:	e51b20cc 	ldr	r2, [fp, #-204]	; 0xffffff34
    a188:	e0812002 	add	r2, r1, r2
    a18c:	e7933102 	ldr	r3, [r3, r2, lsl #2]
    a190:	e3530001 	cmp	r3, #1
    a194:	1a000008 	bne	a1bc <hal_io_video_putc+0x1078>
    a198:	e51b20d8 	ldr	r2, [fp, #-216]	; 0xffffff28
    a19c:	e51b30cc 	ldr	r3, [fp, #-204]	; 0xffffff34
    a1a0:	e0820003 	add	r0, r2, r3
    a1a4:	e51b20dc 	ldr	r2, [fp, #-220]	; 0xffffff24
    a1a8:	e51b30c8 	ldr	r3, [fp, #-200]	; 0xffffff38
    a1ac:	e0823003 	add	r3, r2, r3
    a1b0:	e3e02000 	mvn	r2, #0
    a1b4:	e1a01003 	mov	r1, r3
    a1b8:	ebfffbcf 	bl	90fc <hal_io_video_putpixel>
    a1bc:	e51b30cc 	ldr	r3, [fp, #-204]	; 0xffffff34
    a1c0:	e2833001 	add	r3, r3, #1
    a1c4:	e50b30cc 	str	r3, [fp, #-204]	; 0xffffff34
    a1c8:	e51b30cc 	ldr	r3, [fp, #-204]	; 0xffffff34
    a1cc:	e353000f 	cmp	r3, #15
    a1d0:	daffffe7 	ble	a174 <hal_io_video_putc+0x1030>
    a1d4:	e51b30c8 	ldr	r3, [fp, #-200]	; 0xffffff38
    a1d8:	e2833001 	add	r3, r3, #1
    a1dc:	e50b30c8 	str	r3, [fp, #-200]	; 0xffffff38
    a1e0:	e51b30c8 	ldr	r3, [fp, #-200]	; 0xffffff38
    a1e4:	e3530015 	cmp	r3, #21
    a1e8:	daffffde 	ble	a168 <hal_io_video_putc+0x1024>
    a1ec:	ea000025 	b	a288 <hal_io_video_putc+0x1144>
    a1f0:	e3a03000 	mov	r3, #0
    a1f4:	e50b30d0 	str	r3, [fp, #-208]	; 0xffffff30
    a1f8:	ea00001d 	b	a274 <hal_io_video_putc+0x1130>
    a1fc:	e3a03000 	mov	r3, #0
    a200:	e50b30d4 	str	r3, [fp, #-212]	; 0xffffff2c
    a204:	ea000014 	b	a25c <hal_io_video_putc+0x1118>
    a208:	e59f30e8 	ldr	r3, [pc, #232]	; a2f8 <hal_io_video_putc+0x11b4>
    a20c:	e08f3003 	add	r3, pc, r3
    a210:	e51b20d0 	ldr	r2, [fp, #-208]	; 0xffffff30
    a214:	e1a01202 	lsl	r1, r2, #4
    a218:	e51b20d4 	ldr	r2, [fp, #-212]	; 0xffffff2c
    a21c:	e0812002 	add	r2, r1, r2
    a220:	e7933102 	ldr	r3, [r3, r2, lsl #2]
    a224:	e3530001 	cmp	r3, #1
    a228:	1a000008 	bne	a250 <hal_io_video_putc+0x110c>
    a22c:	e51b20d8 	ldr	r2, [fp, #-216]	; 0xffffff28
    a230:	e51b30d4 	ldr	r3, [fp, #-212]	; 0xffffff2c
    a234:	e0820003 	add	r0, r2, r3
    a238:	e51b20dc 	ldr	r2, [fp, #-220]	; 0xffffff24
    a23c:	e51b30d0 	ldr	r3, [fp, #-208]	; 0xffffff30
    a240:	e0823003 	add	r3, r2, r3
    a244:	e3e02000 	mvn	r2, #0
    a248:	e1a01003 	mov	r1, r3
    a24c:	ebfffbaa 	bl	90fc <hal_io_video_putpixel>
    a250:	e51b30d4 	ldr	r3, [fp, #-212]	; 0xffffff2c
    a254:	e2833001 	add	r3, r3, #1
    a258:	e50b30d4 	str	r3, [fp, #-212]	; 0xffffff2c
    a25c:	e51b30d4 	ldr	r3, [fp, #-212]	; 0xffffff2c
    a260:	e353000f 	cmp	r3, #15
    a264:	daffffe7 	ble	a208 <hal_io_video_putc+0x10c4>
    a268:	e51b30d0 	ldr	r3, [fp, #-208]	; 0xffffff30
    a26c:	e2833001 	add	r3, r3, #1
    a270:	e50b30d0 	str	r3, [fp, #-208]	; 0xffffff30
    a274:	e51b30d0 	ldr	r3, [fp, #-208]	; 0xffffff30
    a278:	e3530015 	cmp	r3, #21
    a27c:	daffffde 	ble	a1fc <hal_io_video_putc+0x10b8>
    a280:	ea000000 	b	a288 <hal_io_video_putc+0x1144>
    a284:	e320f000 	nop	{0}
    a288:	e320f000 	nop	{0}
    a28c:	e24bd004 	sub	sp, fp, #4
    a290:	e8bd8800 	pop	{fp, pc}
    a294:	00001450 	andeq	r1, r0, r0, asr r4
    a298:	0000193c 	andeq	r1, r0, ip, lsr r9
    a29c:	00001e28 	andeq	r1, r0, r8, lsr #28
    a2a0:	00002314 	andeq	r2, r0, r4, lsl r3
    a2a4:	00002800 	andeq	r2, r0, r0, lsl #16
    a2a8:	00002cec 	andeq	r2, r0, ip, ror #25
    a2ac:	000031d8 	ldrdeq	r3, [r0], -r8
    a2b0:	000036c4 	andeq	r3, r0, r4, asr #13
    a2b4:	00003bb0 			; <UNDEFINED> instruction: 0x00003bb0
    a2b8:	0000409c 	muleq	r0, ip, r0
    a2bc:	00004588 	andeq	r4, r0, r8, lsl #11
    a2c0:	00004a74 	andeq	r4, r0, r4, ror sl
    a2c4:	00004f60 	andeq	r4, r0, r0, ror #30
    a2c8:	0000544c 	andeq	r5, r0, ip, asr #8
    a2cc:	00005938 	andeq	r5, r0, r8, lsr r9
    a2d0:	00005e24 	andeq	r5, r0, r4, lsr #28
    a2d4:	00006310 	andeq	r6, r0, r0, lsl r3
    a2d8:	000067fc 	strdeq	r6, [r0], -ip
    a2dc:	00006ce8 	andeq	r6, r0, r8, ror #25
    a2e0:	000071d4 	ldrdeq	r7, [r0], -r4
    a2e4:	000076c0 	andeq	r7, r0, r0, asr #13
    a2e8:	00007bac 	andeq	r7, r0, ip, lsr #23
    a2ec:	00008098 	muleq	r0, r8, r0
    a2f0:	00008584 	andeq	r8, r0, r4, lsl #11
    a2f4:	00008a70 	andeq	r8, r0, r0, ror sl
    a2f8:	00008f5c 	andeq	r8, r0, ip, asr pc

0000a2fc <hex_to_binary>:
    a2fc:	e52db004 	push	{fp}		; (str fp, [sp, #-4]!)
    a300:	e28db000 	add	fp, sp, #0
    a304:	e24dd014 	sub	sp, sp, #20
    a308:	e50b0010 	str	r0, [fp, #-16]
    a30c:	e50b1014 	str	r1, [fp, #-20]	; 0xffffffec
    a310:	e3a03000 	mov	r3, #0
    a314:	e50b3008 	str	r3, [fp, #-8]
    a318:	ea00000c 	b	a350 <hex_to_binary+0x54>
    a31c:	e51b2014 	ldr	r2, [fp, #-20]	; 0xffffffec
    a320:	e51b3008 	ldr	r3, [fp, #-8]
    a324:	e1a03332 	lsr	r3, r2, r3
    a328:	e1a01003 	mov	r1, r3
    a32c:	e51b3008 	ldr	r3, [fp, #-8]
    a330:	e1a03103 	lsl	r3, r3, #2
    a334:	e51b2010 	ldr	r2, [fp, #-16]
    a338:	e0823003 	add	r3, r2, r3
    a33c:	e2012001 	and	r2, r1, #1
    a340:	e5832000 	str	r2, [r3]
    a344:	e51b3008 	ldr	r3, [fp, #-8]
    a348:	e2833001 	add	r3, r3, #1
    a34c:	e50b3008 	str	r3, [fp, #-8]
    a350:	e51b3008 	ldr	r3, [fp, #-8]
    a354:	e3530007 	cmp	r3, #7
    a358:	daffffef 	ble	a31c <hex_to_binary+0x20>
    a35c:	e320f000 	nop	{0}
    a360:	e28bd000 	add	sp, fp, #0
    a364:	e49db004 	pop	{fp}		; (ldr fp, [sp], #4)
    a368:	e12fff1e 	bx	lr

0000a36c <uart_puts>:
    a36c:	e92d4800 	push	{fp, lr}
    a370:	e28db004 	add	fp, sp, #4
    a374:	e24dd008 	sub	sp, sp, #8
    a378:	e50b0008 	str	r0, [fp, #-8]
    a37c:	ea000005 	b	a398 <uart_puts+0x2c>
    a380:	e51b3008 	ldr	r3, [fp, #-8]
    a384:	e2832001 	add	r2, r3, #1
    a388:	e50b2008 	str	r2, [fp, #-8]
    a38c:	e5d33000 	ldrb	r3, [r3]
    a390:	e1a00003 	mov	r0, r3
    a394:	eb000006 	bl	a3b4 <uart_putc>
    a398:	e51b3008 	ldr	r3, [fp, #-8]
    a39c:	e5d33000 	ldrb	r3, [r3]
    a3a0:	e3530000 	cmp	r3, #0
    a3a4:	1afffff5 	bne	a380 <uart_puts+0x14>
    a3a8:	e320f000 	nop	{0}
    a3ac:	e24bd004 	sub	sp, fp, #4
    a3b0:	e8bd8800 	pop	{fp, pc}

0000a3b4 <uart_putc>:
    a3b4:	e92d4800 	push	{fp, lr}
    a3b8:	e28db004 	add	fp, sp, #4
    a3bc:	e24dd008 	sub	sp, sp, #8
    a3c0:	e1a03000 	mov	r3, r0
    a3c4:	e54b3005 	strb	r3, [fp, #-5]
    a3c8:	e320f000 	nop	{0}
    a3cc:	e3010018 	movw	r0, #4120	; 0x1018
    a3d0:	e3430f20 	movt	r0, #16160	; 0x3f20
    a3d4:	eb000058 	bl	a53c <memory_read>
    a3d8:	e1a03000 	mov	r3, r0
    a3dc:	e2033020 	and	r3, r3, #32
    a3e0:	e3530000 	cmp	r3, #0
    a3e4:	1afffff8 	bne	a3cc <uart_putc+0x18>
    a3e8:	e55b3005 	ldrb	r3, [fp, #-5]
    a3ec:	e1a01003 	mov	r1, r3
    a3f0:	e3a00a01 	mov	r0, #4096	; 0x1000
    a3f4:	e3430f20 	movt	r0, #16160	; 0x3f20
    a3f8:	eb000043 	bl	a50c <memory_write>
    a3fc:	e320f000 	nop	{0}
    a400:	e24bd004 	sub	sp, fp, #4
    a404:	e8bd8800 	pop	{fp, pc}

0000a408 <uart_getc>:
    a408:	e92d4800 	push	{fp, lr}
    a40c:	e28db004 	add	fp, sp, #4
    a410:	e320f000 	nop	{0}
    a414:	e3010018 	movw	r0, #4120	; 0x1018
    a418:	e3430f20 	movt	r0, #16160	; 0x3f20
    a41c:	eb000046 	bl	a53c <memory_read>
    a420:	e1a03000 	mov	r3, r0
    a424:	e2033010 	and	r3, r3, #16
    a428:	e3530000 	cmp	r3, #0
    a42c:	1afffff8 	bne	a414 <uart_getc+0xc>
    a430:	e3a00a01 	mov	r0, #4096	; 0x1000
    a434:	e3430f20 	movt	r0, #16160	; 0x3f20
    a438:	eb00003f 	bl	a53c <memory_read>
    a43c:	e1a03000 	mov	r3, r0
    a440:	e6ef3073 	uxtb	r3, r3
    a444:	e1a00003 	mov	r0, r3
    a448:	e8bd8800 	pop	{fp, pc}

0000a44c <uart_init>:
    a44c:	e92d4800 	push	{fp, lr}
    a450:	e28db004 	add	fp, sp, #4
    a454:	e3a01000 	mov	r1, #0
    a458:	e3010030 	movw	r0, #4144	; 0x1030
    a45c:	e3430f20 	movt	r0, #16160	; 0x3f20
    a460:	eb000029 	bl	a50c <memory_write>
    a464:	e3a01000 	mov	r1, #0
    a468:	e3a00094 	mov	r0, #148	; 0x94
    a46c:	e3430f20 	movt	r0, #16160	; 0x3f20
    a470:	eb000025 	bl	a50c <memory_write>
    a474:	e3a00096 	mov	r0, #150	; 0x96
    a478:	eb000039 	bl	a564 <delay>
    a47c:	e3a01903 	mov	r1, #49152	; 0xc000
    a480:	e3a00098 	mov	r0, #152	; 0x98
    a484:	e3430f20 	movt	r0, #16160	; 0x3f20
    a488:	eb00001f 	bl	a50c <memory_write>
    a48c:	e3a00096 	mov	r0, #150	; 0x96
    a490:	eb000033 	bl	a564 <delay>
    a494:	e3a01000 	mov	r1, #0
    a498:	e3a00098 	mov	r0, #152	; 0x98
    a49c:	e3430f20 	movt	r0, #16160	; 0x3f20
    a4a0:	eb000019 	bl	a50c <memory_write>
    a4a4:	e30017ff 	movw	r1, #2047	; 0x7ff
    a4a8:	e3010044 	movw	r0, #4164	; 0x1044
    a4ac:	e3430f20 	movt	r0, #16160	; 0x3f20
    a4b0:	eb000015 	bl	a50c <memory_write>
    a4b4:	e3a01001 	mov	r1, #1
    a4b8:	e3010024 	movw	r0, #4132	; 0x1024
    a4bc:	e3430f20 	movt	r0, #16160	; 0x3f20
    a4c0:	eb000011 	bl	a50c <memory_write>
    a4c4:	e3a01028 	mov	r1, #40	; 0x28
    a4c8:	e3010028 	movw	r0, #4136	; 0x1028
    a4cc:	e3430f20 	movt	r0, #16160	; 0x3f20
    a4d0:	eb00000d 	bl	a50c <memory_write>
    a4d4:	e3a01070 	mov	r1, #112	; 0x70
    a4d8:	e301002c 	movw	r0, #4140	; 0x102c
    a4dc:	e3430f20 	movt	r0, #16160	; 0x3f20
    a4e0:	eb000009 	bl	a50c <memory_write>
    a4e4:	e30017f2 	movw	r1, #2034	; 0x7f2
    a4e8:	e3010038 	movw	r0, #4152	; 0x1038
    a4ec:	e3430f20 	movt	r0, #16160	; 0x3f20
    a4f0:	eb000005 	bl	a50c <memory_write>
    a4f4:	e3001301 	movw	r1, #769	; 0x301
    a4f8:	e3010030 	movw	r0, #4144	; 0x1030
    a4fc:	e3430f20 	movt	r0, #16160	; 0x3f20
    a500:	eb000001 	bl	a50c <memory_write>
    a504:	e320f000 	nop	{0}
    a508:	e8bd8800 	pop	{fp, pc}

0000a50c <memory_write>:
    a50c:	e52db004 	push	{fp}		; (str fp, [sp, #-4]!)
    a510:	e28db000 	add	fp, sp, #0
    a514:	e24dd00c 	sub	sp, sp, #12
    a518:	e50b0008 	str	r0, [fp, #-8]
    a51c:	e50b100c 	str	r1, [fp, #-12]
    a520:	e51b3008 	ldr	r3, [fp, #-8]
    a524:	e51b200c 	ldr	r2, [fp, #-12]
    a528:	e5832000 	str	r2, [r3]
    a52c:	e320f000 	nop	{0}
    a530:	e28bd000 	add	sp, fp, #0
    a534:	e49db004 	pop	{fp}		; (ldr fp, [sp], #4)
    a538:	e12fff1e 	bx	lr

0000a53c <memory_read>:
    a53c:	e52db004 	push	{fp}		; (str fp, [sp, #-4]!)
    a540:	e28db000 	add	fp, sp, #0
    a544:	e24dd00c 	sub	sp, sp, #12
    a548:	e50b0008 	str	r0, [fp, #-8]
    a54c:	e51b3008 	ldr	r3, [fp, #-8]
    a550:	e5933000 	ldr	r3, [r3]
    a554:	e1a00003 	mov	r0, r3
    a558:	e28bd000 	add	sp, fp, #0
    a55c:	e49db004 	pop	{fp}		; (ldr fp, [sp], #4)
    a560:	e12fff1e 	bx	lr

0000a564 <delay>:
    a564:	e52db004 	push	{fp}		; (str fp, [sp, #-4]!)
    a568:	e28db000 	add	fp, sp, #0
    a56c:	e24dd00c 	sub	sp, sp, #12
    a570:	e50b0008 	str	r0, [fp, #-8]
    a574:	e51b3008 	ldr	r3, [fp, #-8]

0000a578 <__delay_205>:
    a578:	e2533001 	subs	r3, r3, #1
    a57c:	1afffffd 	bne	a578 <__delay_205>
    a580:	e50b3008 	str	r3, [fp, #-8]
    a584:	e320f000 	nop	{0}
    a588:	e28bd000 	add	sp, fp, #0
    a58c:	e49db004 	pop	{fp}		; (ldr fp, [sp], #4)
    a590:	e12fff1e 	bx	lr

0000a594 <main>:
    a594:	e92d4800 	push	{fp, lr}
    a598:	e28db004 	add	fp, sp, #4
    a59c:	e24dd010 	sub	sp, sp, #16
    a5a0:	e50b0008 	str	r0, [fp, #-8]
    a5a4:	e50b100c 	str	r1, [fp, #-12]
    a5a8:	e50b2010 	str	r2, [fp, #-16]
    a5ac:	ebfffacd 	bl	90e8 <hal_io_video_init>
    a5b0:	e3e02000 	mvn	r2, #0
    a5b4:	e3a01032 	mov	r1, #50	; 0x32
    a5b8:	e3a00f7d 	mov	r0, #500	; 0x1f4
    a5bc:	ebffface 	bl	90fc <hal_io_video_putpixel>
    a5c0:	e3a03061 	mov	r3, #97	; 0x61
    a5c4:	e3e02000 	mvn	r2, #0
    a5c8:	e3a01050 	mov	r1, #80	; 0x50
    a5cc:	e3a00032 	mov	r0, #50	; 0x32
    a5d0:	ebfffadb 	bl	9144 <hal_io_video_putc>
    a5d4:	e3a03062 	mov	r3, #98	; 0x62
    a5d8:	e3e02000 	mvn	r2, #0
    a5dc:	e3a01050 	mov	r1, #80	; 0x50
    a5e0:	e3a00064 	mov	r0, #100	; 0x64
    a5e4:	ebfffad6 	bl	9144 <hal_io_video_putc>
    a5e8:	e3a03063 	mov	r3, #99	; 0x63
    a5ec:	e3e02000 	mvn	r2, #0
    a5f0:	e3a01050 	mov	r1, #80	; 0x50
    a5f4:	e3a00096 	mov	r0, #150	; 0x96
    a5f8:	ebfffad1 	bl	9144 <hal_io_video_putc>
    a5fc:	e3a03064 	mov	r3, #100	; 0x64
    a600:	e3e02000 	mvn	r2, #0
    a604:	e3a01050 	mov	r1, #80	; 0x50
    a608:	e3a000c8 	mov	r0, #200	; 0xc8
    a60c:	ebfffacc 	bl	9144 <hal_io_video_putc>
    a610:	e3a03065 	mov	r3, #101	; 0x65
    a614:	e3e02000 	mvn	r2, #0
    a618:	e3a01050 	mov	r1, #80	; 0x50
    a61c:	e3a000fa 	mov	r0, #250	; 0xfa
    a620:	ebfffac7 	bl	9144 <hal_io_video_putc>
    a624:	e3a03066 	mov	r3, #102	; 0x66
    a628:	e3e02000 	mvn	r2, #0
    a62c:	e3a01050 	mov	r1, #80	; 0x50
    a630:	e3a00f4b 	mov	r0, #300	; 0x12c
    a634:	ebfffac2 	bl	9144 <hal_io_video_putc>
    a638:	e3a03067 	mov	r3, #103	; 0x67
    a63c:	e3e02000 	mvn	r2, #0
    a640:	e3a01050 	mov	r1, #80	; 0x50
    a644:	e300015e 	movw	r0, #350	; 0x15e
    a648:	ebfffabd 	bl	9144 <hal_io_video_putc>
    a64c:	e3a03068 	mov	r3, #104	; 0x68
    a650:	e3e02000 	mvn	r2, #0
    a654:	e3a01050 	mov	r1, #80	; 0x50
    a658:	e3a00e19 	mov	r0, #400	; 0x190
    a65c:	ebfffab8 	bl	9144 <hal_io_video_putc>
    a660:	e3a03001 	mov	r3, #1
    a664:	e3e02000 	mvn	r2, #0
    a668:	e3a01050 	mov	r1, #80	; 0x50
    a66c:	e30001c2 	movw	r0, #450	; 0x1c2
    a670:	ebfffab3 	bl	9144 <hal_io_video_putc>
    a674:	e3a03002 	mov	r3, #2
    a678:	e3e02000 	mvn	r2, #0
    a67c:	e3a01050 	mov	r1, #80	; 0x50
    a680:	e3a00f7d 	mov	r0, #500	; 0x1f4
    a684:	ebfffaae 	bl	9144 <hal_io_video_putc>
    a688:	e3a0306b 	mov	r3, #107	; 0x6b
    a68c:	e3e02000 	mvn	r2, #0
    a690:	e3a01050 	mov	r1, #80	; 0x50
    a694:	e3000226 	movw	r0, #550	; 0x226
    a698:	ebfffaa9 	bl	9144 <hal_io_video_putc>
    a69c:	e3a0306c 	mov	r3, #108	; 0x6c
    a6a0:	e3e02000 	mvn	r2, #0
    a6a4:	e3a01050 	mov	r1, #80	; 0x50
    a6a8:	e3a00f96 	mov	r0, #600	; 0x258
    a6ac:	ebfffaa4 	bl	9144 <hal_io_video_putc>
    a6b0:	e3a0306d 	mov	r3, #109	; 0x6d
    a6b4:	e3e02000 	mvn	r2, #0
    a6b8:	e3a01050 	mov	r1, #80	; 0x50
    a6bc:	e300028a 	movw	r0, #650	; 0x28a
    a6c0:	ebfffa9f 	bl	9144 <hal_io_video_putc>
    a6c4:	e3a0306e 	mov	r3, #110	; 0x6e
    a6c8:	e3e02000 	mvn	r2, #0
    a6cc:	e3a01050 	mov	r1, #80	; 0x50
    a6d0:	e3a00faf 	mov	r0, #700	; 0x2bc
    a6d4:	ebfffa9a 	bl	9144 <hal_io_video_putc>
    a6d8:	e3a0306f 	mov	r3, #111	; 0x6f
    a6dc:	e3e02000 	mvn	r2, #0
    a6e0:	e3a01050 	mov	r1, #80	; 0x50
    a6e4:	e30002ee 	movw	r0, #750	; 0x2ee
    a6e8:	ebfffa95 	bl	9144 <hal_io_video_putc>
    a6ec:	e3a03070 	mov	r3, #112	; 0x70
    a6f0:	e3e02000 	mvn	r2, #0
    a6f4:	e3a01050 	mov	r1, #80	; 0x50
    a6f8:	e3a00e32 	mov	r0, #800	; 0x320
    a6fc:	ebfffa90 	bl	9144 <hal_io_video_putc>
    a700:	e3a03071 	mov	r3, #113	; 0x71
    a704:	e3e02000 	mvn	r2, #0
    a708:	e3a01050 	mov	r1, #80	; 0x50
    a70c:	e3000352 	movw	r0, #850	; 0x352
    a710:	ebfffa8b 	bl	9144 <hal_io_video_putc>
    a714:	e3a03072 	mov	r3, #114	; 0x72
    a718:	e3e02000 	mvn	r2, #0
    a71c:	e3a01050 	mov	r1, #80	; 0x50
    a720:	e3a00fe1 	mov	r0, #900	; 0x384
    a724:	ebfffa86 	bl	9144 <hal_io_video_putc>
    a728:	e3a03073 	mov	r3, #115	; 0x73
    a72c:	e3e02000 	mvn	r2, #0
    a730:	e3a0106e 	mov	r1, #110	; 0x6e
    a734:	e3a00032 	mov	r0, #50	; 0x32
    a738:	ebfffa81 	bl	9144 <hal_io_video_putc>
    a73c:	e3a03074 	mov	r3, #116	; 0x74
    a740:	e3e02000 	mvn	r2, #0
    a744:	e3a0106e 	mov	r1, #110	; 0x6e
    a748:	e3a00064 	mov	r0, #100	; 0x64
    a74c:	ebfffa7c 	bl	9144 <hal_io_video_putc>
    a750:	e3a03075 	mov	r3, #117	; 0x75
    a754:	e3e02000 	mvn	r2, #0
    a758:	e3a0106e 	mov	r1, #110	; 0x6e
    a75c:	e3a00096 	mov	r0, #150	; 0x96
    a760:	ebfffa77 	bl	9144 <hal_io_video_putc>
    a764:	e3a03076 	mov	r3, #118	; 0x76
    a768:	e3e02000 	mvn	r2, #0
    a76c:	e3a0106e 	mov	r1, #110	; 0x6e
    a770:	e3a000c8 	mov	r0, #200	; 0xc8
    a774:	ebfffa72 	bl	9144 <hal_io_video_putc>
    a778:	e3a03077 	mov	r3, #119	; 0x77
    a77c:	e3e02000 	mvn	r2, #0
    a780:	e3a0106e 	mov	r1, #110	; 0x6e
    a784:	e3a000fa 	mov	r0, #250	; 0xfa
    a788:	ebfffa6d 	bl	9144 <hal_io_video_putc>
    a78c:	e3a03003 	mov	r3, #3
    a790:	e3e02000 	mvn	r2, #0
    a794:	e3a0106e 	mov	r1, #110	; 0x6e
    a798:	e3a00f4b 	mov	r0, #300	; 0x12c
    a79c:	ebfffa68 	bl	9144 <hal_io_video_putc>
    a7a0:	e3a03004 	mov	r3, #4
    a7a4:	e3e02000 	mvn	r2, #0
    a7a8:	e3a0106e 	mov	r1, #110	; 0x6e
    a7ac:	e300015e 	movw	r0, #350	; 0x15e
    a7b0:	ebfffa63 	bl	9144 <hal_io_video_putc>
    a7b4:	e3a0307a 	mov	r3, #122	; 0x7a
    a7b8:	e3e02000 	mvn	r2, #0
    a7bc:	e3a0106e 	mov	r1, #110	; 0x6e
    a7c0:	e3a00e19 	mov	r0, #400	; 0x190
    a7c4:	ebfffa5e 	bl	9144 <hal_io_video_putc>
    a7c8:	ebfffa22 	bl	9058 <hal_io_serial_init>
    a7cc:	e59f3018 	ldr	r3, [pc, #24]	; a7ec <main+0x258>
    a7d0:	e08f3003 	add	r3, pc, r3
    a7d4:	e1a01003 	mov	r1, r3
    a7d8:	e3a00000 	mov	r0, #0
    a7dc:	ebfffa2e 	bl	909c <hal_io_serial_puts>
    a7e0:	e320f000 	nop	{0}
    a7e4:	e24bd004 	sub	sp, fp, #4
    a7e8:	e8bd8800 	pop	{fp, pc}
    a7ec:	000093f0 	strdeq	r9, [r0], -r0

Disassembly of section .data:

0000a7f0 <__data_start>:
	...
    a840:	00000001 	andeq	r0, r0, r1
    a844:	00000001 	andeq	r0, r0, r1
    a848:	00000001 	andeq	r0, r0, r1
    a84c:	00000001 	andeq	r0, r0, r1
    a850:	00000001 	andeq	r0, r0, r1
    a854:	00000001 	andeq	r0, r0, r1
    a858:	00000001 	andeq	r0, r0, r1
	...
    a87c:	00000001 	andeq	r0, r0, r1
	...
    a89c:	00000001 	andeq	r0, r0, r1
	...
    a8b8:	00000001 	andeq	r0, r0, r1
	...
    a8e0:	00000001 	andeq	r0, r0, r1
	...
    a8f4:	00000001 	andeq	r0, r0, r1
	...
    a924:	00000001 	andeq	r0, r0, r1
	...
    a930:	00000001 	andeq	r0, r0, r1
	...
    a968:	00000001 	andeq	r0, r0, r1
	...
    a9a8:	00000001 	andeq	r0, r0, r1
	...
    a9e8:	00000001 	andeq	r0, r0, r1
	...
    a9fc:	00000001 	andeq	r0, r0, r1
    aa00:	00000001 	andeq	r0, r0, r1
    aa04:	00000001 	andeq	r0, r0, r1
    aa08:	00000001 	andeq	r0, r0, r1
    aa0c:	00000001 	andeq	r0, r0, r1
    aa10:	00000001 	andeq	r0, r0, r1
    aa14:	00000001 	andeq	r0, r0, r1
    aa18:	00000001 	andeq	r0, r0, r1
    aa1c:	00000001 	andeq	r0, r0, r1
	...
    aa28:	00000001 	andeq	r0, r0, r1
	...
    aa38:	00000001 	andeq	r0, r0, r1
	...
    aa60:	00000001 	andeq	r0, r0, r1
    aa64:	00000000 	andeq	r0, r0, r0
    aa68:	00000001 	andeq	r0, r0, r1
	...
    aa74:	00000001 	andeq	r0, r0, r1
	...
    aaa4:	00000001 	andeq	r0, r0, r1
    aaa8:	00000001 	andeq	r0, r0, r1
    aaac:	00000000 	andeq	r0, r0, r0
    aab0:	00000001 	andeq	r0, r0, r1
	...
    aae8:	00000001 	andeq	r0, r0, r1
    aaec:	00000000 	andeq	r0, r0, r0
    aaf0:	00000001 	andeq	r0, r0, r1
	...
    ab28:	00000001 	andeq	r0, r0, r1
    ab2c:	00000000 	andeq	r0, r0, r0
    ab30:	00000001 	andeq	r0, r0, r1
	...
    ab68:	00000001 	andeq	r0, r0, r1
    ab6c:	00000000 	andeq	r0, r0, r0
    ab70:	00000001 	andeq	r0, r0, r1
	...
    aba8:	00000001 	andeq	r0, r0, r1
    abac:	00000000 	andeq	r0, r0, r0
    abb0:	00000001 	andeq	r0, r0, r1
	...
    abe8:	00000001 	andeq	r0, r0, r1
    abec:	00000000 	andeq	r0, r0, r0
    abf0:	00000001 	andeq	r0, r0, r1
	...
    ac24:	00000001 	andeq	r0, r0, r1
    ac28:	00000001 	andeq	r0, r0, r1
    ac2c:	00000000 	andeq	r0, r0, r0
    ac30:	00000001 	andeq	r0, r0, r1
	...
    ac60:	00000001 	andeq	r0, r0, r1
    ac64:	00000000 	andeq	r0, r0, r0
    ac68:	00000001 	andeq	r0, r0, r1
	...
    ac74:	00000001 	andeq	r0, r0, r1
	...
    ac9c:	00000001 	andeq	r0, r0, r1
	...
    acac:	00000001 	andeq	r0, r0, r1
	...
    acb8:	00000001 	andeq	r0, r0, r1
    acbc:	00000001 	andeq	r0, r0, r1
    acc0:	00000001 	andeq	r0, r0, r1
    acc4:	00000001 	andeq	r0, r0, r1
    acc8:	00000001 	andeq	r0, r0, r1
    accc:	00000001 	andeq	r0, r0, r1
    acd0:	00000001 	andeq	r0, r0, r1
    acd4:	00000001 	andeq	r0, r0, r1
    acd8:	00000001 	andeq	r0, r0, r1
	...

0000ad70 <b.5450>:
	...
    adb0:	00000001 	andeq	r0, r0, r1
	...
    adf0:	00000001 	andeq	r0, r0, r1
	...
    ae30:	00000001 	andeq	r0, r0, r1
	...
    ae70:	00000001 	andeq	r0, r0, r1
	...
    aeb0:	00000001 	andeq	r0, r0, r1
	...
    aef0:	00000001 	andeq	r0, r0, r1
	...
    af30:	00000001 	andeq	r0, r0, r1
	...
    af70:	00000001 	andeq	r0, r0, r1
	...
    af7c:	00000001 	andeq	r0, r0, r1
    af80:	00000001 	andeq	r0, r0, r1
    af84:	00000001 	andeq	r0, r0, r1
    af88:	00000001 	andeq	r0, r0, r1
    af8c:	00000001 	andeq	r0, r0, r1
    af90:	00000001 	andeq	r0, r0, r1
    af94:	00000001 	andeq	r0, r0, r1
    af98:	00000001 	andeq	r0, r0, r1
    af9c:	00000001 	andeq	r0, r0, r1
	...
    afb0:	00000001 	andeq	r0, r0, r1
    afb4:	00000000 	andeq	r0, r0, r0
    afb8:	00000001 	andeq	r0, r0, r1
	...
    afe0:	00000001 	andeq	r0, r0, r1
	...
    aff0:	00000001 	andeq	r0, r0, r1
    aff4:	00000001 	andeq	r0, r0, r1
	...
    b024:	00000001 	andeq	r0, r0, r1
	...
    b030:	00000001 	andeq	r0, r0, r1
	...
    b068:	00000001 	andeq	r0, r0, r1
    b06c:	00000000 	andeq	r0, r0, r0
    b070:	00000001 	andeq	r0, r0, r1
	...
    b0a8:	00000001 	andeq	r0, r0, r1
    b0ac:	00000000 	andeq	r0, r0, r0
    b0b0:	00000001 	andeq	r0, r0, r1
	...
    b0e8:	00000001 	andeq	r0, r0, r1
    b0ec:	00000000 	andeq	r0, r0, r0
    b0f0:	00000001 	andeq	r0, r0, r1
	...
    b128:	00000001 	andeq	r0, r0, r1
    b12c:	00000000 	andeq	r0, r0, r0
    b130:	00000001 	andeq	r0, r0, r1
	...
    b168:	00000001 	andeq	r0, r0, r1
    b16c:	00000000 	andeq	r0, r0, r0
    b170:	00000001 	andeq	r0, r0, r1
	...
    b1a8:	00000001 	andeq	r0, r0, r1
    b1ac:	00000000 	andeq	r0, r0, r0
    b1b0:	00000001 	andeq	r0, r0, r1
	...
    b1e8:	00000001 	andeq	r0, r0, r1
	...
    b1f4:	00000001 	andeq	r0, r0, r1
	...
    b224:	00000001 	andeq	r0, r0, r1
	...
    b238:	00000001 	andeq	r0, r0, r1
    b23c:	00000001 	andeq	r0, r0, r1
    b240:	00000001 	andeq	r0, r0, r1
    b244:	00000001 	andeq	r0, r0, r1
    b248:	00000001 	andeq	r0, r0, r1
    b24c:	00000001 	andeq	r0, r0, r1
    b250:	00000001 	andeq	r0, r0, r1
    b254:	00000001 	andeq	r0, r0, r1
    b258:	00000001 	andeq	r0, r0, r1
    b25c:	00000001 	andeq	r0, r0, r1
    b260:	00000001 	andeq	r0, r0, r1
	...

0000b2f0 <c.5451>:
	...
    b400:	00000001 	andeq	r0, r0, r1
    b404:	00000001 	andeq	r0, r0, r1
    b408:	00000001 	andeq	r0, r0, r1
    b40c:	00000001 	andeq	r0, r0, r1
    b410:	00000001 	andeq	r0, r0, r1
    b414:	00000001 	andeq	r0, r0, r1
    b418:	00000001 	andeq	r0, r0, r1
	...
    b43c:	00000001 	andeq	r0, r0, r1
	...
    b45c:	00000001 	andeq	r0, r0, r1
	...
    b478:	00000001 	andeq	r0, r0, r1
	...
    b4a0:	00000001 	andeq	r0, r0, r1
	...
    b4b4:	00000001 	andeq	r0, r0, r1
	...
    b4e4:	00000001 	andeq	r0, r0, r1
	...
    b4f4:	00000001 	andeq	r0, r0, r1
	...
    b528:	00000001 	andeq	r0, r0, r1
	...
    b534:	00000001 	andeq	r0, r0, r1
	...
    b574:	00000001 	andeq	r0, r0, r1
	...
    b5b4:	00000001 	andeq	r0, r0, r1
	...
    b5f4:	00000001 	andeq	r0, r0, r1
	...
    b634:	00000001 	andeq	r0, r0, r1
	...
    b674:	00000001 	andeq	r0, r0, r1
	...
    b6b4:	00000001 	andeq	r0, r0, r1
	...
    b6e8:	00000001 	andeq	r0, r0, r1
	...
    b6f4:	00000001 	andeq	r0, r0, r1
	...
    b724:	00000001 	andeq	r0, r0, r1
	...
    b738:	00000001 	andeq	r0, r0, r1
	...
    b760:	00000001 	andeq	r0, r0, r1
	...
    b77c:	00000001 	andeq	r0, r0, r1
	...
    b79c:	00000001 	andeq	r0, r0, r1
	...
    b7c0:	00000001 	andeq	r0, r0, r1
    b7c4:	00000001 	andeq	r0, r0, r1
    b7c8:	00000001 	andeq	r0, r0, r1
    b7cc:	00000001 	andeq	r0, r0, r1
    b7d0:	00000001 	andeq	r0, r0, r1
    b7d4:	00000001 	andeq	r0, r0, r1
    b7d8:	00000001 	andeq	r0, r0, r1
	...

0000b870 <d.5452>:
	...
    b8e8:	00000001 	andeq	r0, r0, r1
	...
    b928:	00000001 	andeq	r0, r0, r1
	...
    b968:	00000001 	andeq	r0, r0, r1
	...
    b9a8:	00000001 	andeq	r0, r0, r1
	...
    b9e8:	00000001 	andeq	r0, r0, r1
	...
    ba28:	00000001 	andeq	r0, r0, r1
	...
    ba68:	00000001 	andeq	r0, r0, r1
	...
    ba7c:	00000001 	andeq	r0, r0, r1
    ba80:	00000001 	andeq	r0, r0, r1
    ba84:	00000001 	andeq	r0, r0, r1
    ba88:	00000001 	andeq	r0, r0, r1
    ba8c:	00000001 	andeq	r0, r0, r1
    ba90:	00000001 	andeq	r0, r0, r1
    ba94:	00000001 	andeq	r0, r0, r1
    ba98:	00000001 	andeq	r0, r0, r1
    ba9c:	00000001 	andeq	r0, r0, r1
	...
    baa8:	00000001 	andeq	r0, r0, r1
	...
    bab8:	00000001 	andeq	r0, r0, r1
	...
    bae0:	00000001 	andeq	r0, r0, r1
    bae4:	00000000 	andeq	r0, r0, r0
    bae8:	00000001 	andeq	r0, r0, r1
	...
    baf4:	00000001 	andeq	r0, r0, r1
	...
    bb24:	00000001 	andeq	r0, r0, r1
    bb28:	00000001 	andeq	r0, r0, r1
    bb2c:	00000000 	andeq	r0, r0, r0
    bb30:	00000001 	andeq	r0, r0, r1
	...
    bb68:	00000001 	andeq	r0, r0, r1
    bb6c:	00000000 	andeq	r0, r0, r0
    bb70:	00000001 	andeq	r0, r0, r1
	...
    bba8:	00000001 	andeq	r0, r0, r1
    bbac:	00000000 	andeq	r0, r0, r0
    bbb0:	00000001 	andeq	r0, r0, r1
	...
    bbe8:	00000001 	andeq	r0, r0, r1
    bbec:	00000000 	andeq	r0, r0, r0
    bbf0:	00000001 	andeq	r0, r0, r1
	...
    bc28:	00000001 	andeq	r0, r0, r1
    bc2c:	00000000 	andeq	r0, r0, r0
    bc30:	00000001 	andeq	r0, r0, r1
	...
    bc68:	00000001 	andeq	r0, r0, r1
    bc6c:	00000000 	andeq	r0, r0, r0
    bc70:	00000001 	andeq	r0, r0, r1
	...
    bca4:	00000001 	andeq	r0, r0, r1
    bca8:	00000001 	andeq	r0, r0, r1
    bcac:	00000000 	andeq	r0, r0, r0
    bcb0:	00000001 	andeq	r0, r0, r1
	...
    bce0:	00000001 	andeq	r0, r0, r1
    bce4:	00000000 	andeq	r0, r0, r0
    bce8:	00000001 	andeq	r0, r0, r1
	...
    bcf4:	00000001 	andeq	r0, r0, r1
	...
    bd1c:	00000001 	andeq	r0, r0, r1
	...
    bd2c:	00000001 	andeq	r0, r0, r1
	...
    bd38:	00000001 	andeq	r0, r0, r1
    bd3c:	00000001 	andeq	r0, r0, r1
    bd40:	00000001 	andeq	r0, r0, r1
    bd44:	00000001 	andeq	r0, r0, r1
    bd48:	00000001 	andeq	r0, r0, r1
    bd4c:	00000001 	andeq	r0, r0, r1
    bd50:	00000001 	andeq	r0, r0, r1
    bd54:	00000001 	andeq	r0, r0, r1
    bd58:	00000001 	andeq	r0, r0, r1
	...

0000bdf0 <e.5453>:
	...
    be80:	00000001 	andeq	r0, r0, r1
    be84:	00000001 	andeq	r0, r0, r1
    be88:	00000001 	andeq	r0, r0, r1
    be8c:	00000001 	andeq	r0, r0, r1
    be90:	00000001 	andeq	r0, r0, r1
    be94:	00000001 	andeq	r0, r0, r1
    be98:	00000001 	andeq	r0, r0, r1
	...
    bebc:	00000001 	andeq	r0, r0, r1
	...
    bedc:	00000001 	andeq	r0, r0, r1
	...
    bef8:	00000001 	andeq	r0, r0, r1
	...
    bf20:	00000001 	andeq	r0, r0, r1
	...
    bf34:	00000001 	andeq	r0, r0, r1
	...
    bf64:	00000001 	andeq	r0, r0, r1
	...
    bf70:	00000001 	andeq	r0, r0, r1
	...
    bfa8:	00000001 	andeq	r0, r0, r1
    bfac:	00000000 	andeq	r0, r0, r0
    bfb0:	00000001 	andeq	r0, r0, r1
	...
    bfe8:	00000001 	andeq	r0, r0, r1
    bfec:	00000000 	andeq	r0, r0, r0
    bff0:	00000001 	andeq	r0, r0, r1
    bff4:	00000001 	andeq	r0, r0, r1
    bff8:	00000001 	andeq	r0, r0, r1
    bffc:	00000001 	andeq	r0, r0, r1
    c000:	00000001 	andeq	r0, r0, r1
    c004:	00000001 	andeq	r0, r0, r1
    c008:	00000001 	andeq	r0, r0, r1
    c00c:	00000001 	andeq	r0, r0, r1
    c010:	00000001 	andeq	r0, r0, r1
    c014:	00000001 	andeq	r0, r0, r1
    c018:	00000001 	andeq	r0, r0, r1
    c01c:	00000001 	andeq	r0, r0, r1
    c020:	00000001 	andeq	r0, r0, r1
    c024:	00000001 	andeq	r0, r0, r1
    c028:	00000001 	andeq	r0, r0, r1
    c02c:	00000000 	andeq	r0, r0, r0
    c030:	00000001 	andeq	r0, r0, r1
	...
    c070:	00000001 	andeq	r0, r0, r1
	...
    c0b0:	00000001 	andeq	r0, r0, r1
	...
    c0f0:	00000001 	andeq	r0, r0, r1
	...
    c130:	00000001 	andeq	r0, r0, r1
	...
    c170:	00000001 	andeq	r0, r0, r1
	...
    c1b0:	00000001 	andeq	r0, r0, r1
	...
    c1f0:	00000001 	andeq	r0, r0, r1
	...
    c230:	00000001 	andeq	r0, r0, r1
	...
    c268:	00000001 	andeq	r0, r0, r1
	...
    c274:	00000001 	andeq	r0, r0, r1
	...
    c2a4:	00000001 	andeq	r0, r0, r1
	...
    c2b8:	00000001 	andeq	r0, r0, r1
    c2bc:	00000001 	andeq	r0, r0, r1
    c2c0:	00000001 	andeq	r0, r0, r1
    c2c4:	00000001 	andeq	r0, r0, r1
    c2c8:	00000001 	andeq	r0, r0, r1
    c2cc:	00000001 	andeq	r0, r0, r1
    c2d0:	00000001 	andeq	r0, r0, r1
    c2d4:	00000001 	andeq	r0, r0, r1
    c2d8:	00000001 	andeq	r0, r0, r1
    c2dc:	00000001 	andeq	r0, r0, r1
    c2e0:	00000001 	andeq	r0, r0, r1
	...

0000c370 <f.5454>:
	...
    c3cc:	00000001 	andeq	r0, r0, r1
    c3d0:	00000001 	andeq	r0, r0, r1
    c3d4:	00000001 	andeq	r0, r0, r1
    c3d8:	00000001 	andeq	r0, r0, r1
	...
    c408:	00000001 	andeq	r0, r0, r1
	...
    c41c:	00000001 	andeq	r0, r0, r1
	...
    c448:	00000001 	andeq	r0, r0, r1
	...
    c460:	00000001 	andeq	r0, r0, r1
	...
    c488:	00000001 	andeq	r0, r0, r1
	...
    c4a4:	00000001 	andeq	r0, r0, r1
	...
    c4c8:	00000001 	andeq	r0, r0, r1
	...
    c508:	00000001 	andeq	r0, r0, r1
	...
    c548:	00000001 	andeq	r0, r0, r1
	...
    c57c:	00000001 	andeq	r0, r0, r1
    c580:	00000001 	andeq	r0, r0, r1
    c584:	00000001 	andeq	r0, r0, r1
    c588:	00000001 	andeq	r0, r0, r1
    c58c:	00000001 	andeq	r0, r0, r1
    c590:	00000001 	andeq	r0, r0, r1
    c594:	00000001 	andeq	r0, r0, r1
    c598:	00000001 	andeq	r0, r0, r1
    c59c:	00000001 	andeq	r0, r0, r1
    c5a0:	00000001 	andeq	r0, r0, r1
	...
    c5c8:	00000001 	andeq	r0, r0, r1
	...
    c608:	00000001 	andeq	r0, r0, r1
	...
    c648:	00000001 	andeq	r0, r0, r1
	...
    c688:	00000001 	andeq	r0, r0, r1
	...
    c6c8:	00000001 	andeq	r0, r0, r1
	...
    c708:	00000001 	andeq	r0, r0, r1
	...
    c748:	00000001 	andeq	r0, r0, r1
	...
    c788:	00000001 	andeq	r0, r0, r1
	...
    c7c8:	00000001 	andeq	r0, r0, r1
	...
    c808:	00000001 	andeq	r0, r0, r1
	...
    c848:	00000001 	andeq	r0, r0, r1
	...
    c888:	00000001 	andeq	r0, r0, r1
	...
    c8c8:	00000001 	andeq	r0, r0, r1
	...

0000c8f0 <g.5455>:
	...
    c940:	00000001 	andeq	r0, r0, r1
    c944:	00000001 	andeq	r0, r0, r1
    c948:	00000001 	andeq	r0, r0, r1
    c94c:	00000001 	andeq	r0, r0, r1
    c950:	00000001 	andeq	r0, r0, r1
    c954:	00000001 	andeq	r0, r0, r1
    c958:	00000001 	andeq	r0, r0, r1
	...
    c97c:	00000001 	andeq	r0, r0, r1
	...
    c99c:	00000001 	andeq	r0, r0, r1
	...
    c9b8:	00000001 	andeq	r0, r0, r1
	...
    c9e0:	00000001 	andeq	r0, r0, r1
	...
    c9f4:	00000001 	andeq	r0, r0, r1
	...
    ca24:	00000001 	andeq	r0, r0, r1
	...
    ca34:	00000001 	andeq	r0, r0, r1
	...
    ca68:	00000001 	andeq	r0, r0, r1
	...
    ca74:	00000001 	andeq	r0, r0, r1
	...
    caa8:	00000001 	andeq	r0, r0, r1
	...
    cab4:	00000001 	andeq	r0, r0, r1
	...
    cae8:	00000001 	andeq	r0, r0, r1
	...
    caf4:	00000001 	andeq	r0, r0, r1
	...
    cb24:	00000001 	andeq	r0, r0, r1
    cb28:	00000001 	andeq	r0, r0, r1
	...
    cb34:	00000001 	andeq	r0, r0, r1
	...
    cb60:	00000001 	andeq	r0, r0, r1
    cb64:	00000000 	andeq	r0, r0, r0
    cb68:	00000001 	andeq	r0, r0, r1
	...
    cb78:	00000001 	andeq	r0, r0, r1
	...
    cb9c:	00000001 	andeq	r0, r0, r1
	...
    cba8:	00000001 	andeq	r0, r0, r1
	...
    cbbc:	00000001 	andeq	r0, r0, r1
    cbc0:	00000001 	andeq	r0, r0, r1
    cbc4:	00000001 	andeq	r0, r0, r1
    cbc8:	00000001 	andeq	r0, r0, r1
    cbcc:	00000001 	andeq	r0, r0, r1
    cbd0:	00000001 	andeq	r0, r0, r1
    cbd4:	00000001 	andeq	r0, r0, r1
    cbd8:	00000001 	andeq	r0, r0, r1
	...
    cbe8:	00000001 	andeq	r0, r0, r1
	...
    cc28:	00000001 	andeq	r0, r0, r1
	...
    cc68:	00000001 	andeq	r0, r0, r1
	...
    cca8:	00000001 	andeq	r0, r0, r1
	...
    cce8:	00000001 	andeq	r0, r0, r1
	...
    cd28:	00000001 	andeq	r0, r0, r1
	...
    cd68:	00000001 	andeq	r0, r0, r1
	...
    cd74:	00000001 	andeq	r0, r0, r1
	...
    cda4:	00000001 	andeq	r0, r0, r1
	...
    cdb8:	00000001 	andeq	r0, r0, r1
    cdbc:	00000001 	andeq	r0, r0, r1
    cdc0:	00000001 	andeq	r0, r0, r1
    cdc4:	00000001 	andeq	r0, r0, r1
    cdc8:	00000001 	andeq	r0, r0, r1
    cdcc:	00000001 	andeq	r0, r0, r1
    cdd0:	00000001 	andeq	r0, r0, r1
    cdd4:	00000001 	andeq	r0, r0, r1
    cdd8:	00000001 	andeq	r0, r0, r1
    cddc:	00000001 	andeq	r0, r0, r1
    cde0:	00000001 	andeq	r0, r0, r1
	...

0000ce70 <h.5456>:
	...
    ceb0:	00000001 	andeq	r0, r0, r1
	...
    cef0:	00000001 	andeq	r0, r0, r1
	...
    cf30:	00000001 	andeq	r0, r0, r1
	...
    cf70:	00000001 	andeq	r0, r0, r1
	...
    cfb0:	00000001 	andeq	r0, r0, r1
	...
    cff0:	00000001 	andeq	r0, r0, r1
	...
    d030:	00000001 	andeq	r0, r0, r1
	...
    d070:	00000001 	andeq	r0, r0, r1
	...
    d07c:	00000001 	andeq	r0, r0, r1
    d080:	00000001 	andeq	r0, r0, r1
    d084:	00000001 	andeq	r0, r0, r1
    d088:	00000001 	andeq	r0, r0, r1
    d08c:	00000001 	andeq	r0, r0, r1
    d090:	00000001 	andeq	r0, r0, r1
    d094:	00000001 	andeq	r0, r0, r1
    d098:	00000001 	andeq	r0, r0, r1
    d09c:	00000001 	andeq	r0, r0, r1
	...
    d0b0:	00000001 	andeq	r0, r0, r1
    d0b4:	00000000 	andeq	r0, r0, r0
    d0b8:	00000001 	andeq	r0, r0, r1
	...
    d0e0:	00000001 	andeq	r0, r0, r1
	...
    d0f0:	00000001 	andeq	r0, r0, r1
    d0f4:	00000001 	andeq	r0, r0, r1
	...
    d124:	00000001 	andeq	r0, r0, r1
	...
    d130:	00000001 	andeq	r0, r0, r1
	...
    d168:	00000001 	andeq	r0, r0, r1
    d16c:	00000000 	andeq	r0, r0, r0
    d170:	00000001 	andeq	r0, r0, r1
	...
    d1a8:	00000001 	andeq	r0, r0, r1
    d1ac:	00000000 	andeq	r0, r0, r0
    d1b0:	00000001 	andeq	r0, r0, r1
	...
    d1e8:	00000001 	andeq	r0, r0, r1
    d1ec:	00000000 	andeq	r0, r0, r0
    d1f0:	00000001 	andeq	r0, r0, r1
	...
    d228:	00000001 	andeq	r0, r0, r1
    d22c:	00000000 	andeq	r0, r0, r0
    d230:	00000001 	andeq	r0, r0, r1
	...
    d268:	00000001 	andeq	r0, r0, r1
    d26c:	00000000 	andeq	r0, r0, r0
    d270:	00000001 	andeq	r0, r0, r1
	...
    d2a8:	00000001 	andeq	r0, r0, r1
    d2ac:	00000000 	andeq	r0, r0, r0
    d2b0:	00000001 	andeq	r0, r0, r1
	...
    d2e8:	00000001 	andeq	r0, r0, r1
    d2ec:	00000000 	andeq	r0, r0, r0
    d2f0:	00000001 	andeq	r0, r0, r1
	...
    d328:	00000001 	andeq	r0, r0, r1
    d32c:	00000000 	andeq	r0, r0, r0
    d330:	00000001 	andeq	r0, r0, r1
	...
    d368:	00000001 	andeq	r0, r0, r1
    d36c:	00000000 	andeq	r0, r0, r0
    d370:	00000001 	andeq	r0, r0, r1
	...
    d3a8:	00000001 	andeq	r0, r0, r1
	...

0000d3f0 <iChar.5457>:
	...
    d50c:	00000001 	andeq	r0, r0, r1
	...
    d54c:	00000001 	andeq	r0, r0, r1
	...
    d60c:	00000001 	andeq	r0, r0, r1
	...
    d64c:	00000001 	andeq	r0, r0, r1
	...
    d68c:	00000001 	andeq	r0, r0, r1
	...
    d6cc:	00000001 	andeq	r0, r0, r1
	...
    d70c:	00000001 	andeq	r0, r0, r1
	...
    d74c:	00000001 	andeq	r0, r0, r1
	...
    d78c:	00000001 	andeq	r0, r0, r1
	...
    d7cc:	00000001 	andeq	r0, r0, r1
	...
    d80c:	00000001 	andeq	r0, r0, r1
	...
    d84c:	00000001 	andeq	r0, r0, r1
	...
    d88c:	00000001 	andeq	r0, r0, r1
	...
    d8cc:	00000001 	andeq	r0, r0, r1
	...

0000d970 <jChar.5458>:
	...
    da8c:	00000001 	andeq	r0, r0, r1
	...
    dacc:	00000001 	andeq	r0, r0, r1
	...
    db8c:	00000001 	andeq	r0, r0, r1
	...
    dbcc:	00000001 	andeq	r0, r0, r1
	...
    dc0c:	00000001 	andeq	r0, r0, r1
	...
    dc4c:	00000001 	andeq	r0, r0, r1
	...
    dc8c:	00000001 	andeq	r0, r0, r1
	...
    dccc:	00000001 	andeq	r0, r0, r1
	...
    dd0c:	00000001 	andeq	r0, r0, r1
	...
    dd4c:	00000001 	andeq	r0, r0, r1
	...
    dd74:	00000001 	andeq	r0, r0, r1
	...
    dd8c:	00000001 	andeq	r0, r0, r1
	...
    ddb4:	00000001 	andeq	r0, r0, r1
	...
    ddc8:	00000001 	andeq	r0, r0, r1
	...
    ddf8:	00000001 	andeq	r0, r0, r1
	...
    de04:	00000001 	andeq	r0, r0, r1
	...
    de3c:	00000001 	andeq	r0, r0, r1
    de40:	00000001 	andeq	r0, r0, r1
	...

0000def0 <k.5459>:
	...
    df74:	00000001 	andeq	r0, r0, r1
	...
    df94:	00000001 	andeq	r0, r0, r1
	...
    dfb4:	00000001 	andeq	r0, r0, r1
	...
    dfd0:	00000001 	andeq	r0, r0, r1
	...
    dff4:	00000001 	andeq	r0, r0, r1
	...
    e00c:	00000001 	andeq	r0, r0, r1
	...
    e034:	00000001 	andeq	r0, r0, r1
	...
    e048:	00000001 	andeq	r0, r0, r1
	...
    e074:	00000001 	andeq	r0, r0, r1
	...
    e084:	00000001 	andeq	r0, r0, r1
	...
    e0b4:	00000001 	andeq	r0, r0, r1
	...
    e0c0:	00000001 	andeq	r0, r0, r1
	...
    e0f4:	00000001 	andeq	r0, r0, r1
    e0f8:	00000000 	andeq	r0, r0, r0
    e0fc:	00000001 	andeq	r0, r0, r1
	...
    e134:	00000001 	andeq	r0, r0, r1
    e138:	00000001 	andeq	r0, r0, r1
	...
    e174:	00000001 	andeq	r0, r0, r1
    e178:	00000001 	andeq	r0, r0, r1
	...
    e1b4:	00000001 	andeq	r0, r0, r1
    e1b8:	00000000 	andeq	r0, r0, r0
    e1bc:	00000001 	andeq	r0, r0, r1
	...
    e1f4:	00000001 	andeq	r0, r0, r1
	...
    e200:	00000001 	andeq	r0, r0, r1
	...
    e234:	00000001 	andeq	r0, r0, r1
	...
    e244:	00000001 	andeq	r0, r0, r1
	...
    e274:	00000001 	andeq	r0, r0, r1
	...
    e288:	00000001 	andeq	r0, r0, r1
	...
    e2b4:	00000001 	andeq	r0, r0, r1
	...
    e2cc:	00000001 	andeq	r0, r0, r1
	...
    e2f4:	00000001 	andeq	r0, r0, r1
	...
    e310:	00000001 	andeq	r0, r0, r1
	...
    e334:	00000001 	andeq	r0, r0, r1
	...
    e354:	00000001 	andeq	r0, r0, r1
	...
    e374:	00000001 	andeq	r0, r0, r1
	...
    e398:	00000001 	andeq	r0, r0, r1
	...
    e3b4:	00000001 	andeq	r0, r0, r1
	...
    e3dc:	00000001 	andeq	r0, r0, r1
	...

0000e470 <l.5460>:
	...
    e50c:	00000001 	andeq	r0, r0, r1
	...
    e54c:	00000001 	andeq	r0, r0, r1
	...
    e58c:	00000001 	andeq	r0, r0, r1
	...
    e5cc:	00000001 	andeq	r0, r0, r1
	...
    e60c:	00000001 	andeq	r0, r0, r1
	...
    e64c:	00000001 	andeq	r0, r0, r1
	...
    e68c:	00000001 	andeq	r0, r0, r1
	...
    e6cc:	00000001 	andeq	r0, r0, r1
	...
    e70c:	00000001 	andeq	r0, r0, r1
	...
    e74c:	00000001 	andeq	r0, r0, r1
	...
    e78c:	00000001 	andeq	r0, r0, r1
	...
    e7cc:	00000001 	andeq	r0, r0, r1
	...
    e80c:	00000001 	andeq	r0, r0, r1
	...
    e84c:	00000001 	andeq	r0, r0, r1
	...
    e88c:	00000001 	andeq	r0, r0, r1
	...
    e8cc:	00000001 	andeq	r0, r0, r1
	...
    e90c:	00000001 	andeq	r0, r0, r1
	...
    e94c:	00000001 	andeq	r0, r0, r1
	...

0000e9f0 <m.5461>:
	...
    ebfc:	00000001 	andeq	r0, r0, r1
    ec00:	00000001 	andeq	r0, r0, r1
    ec04:	00000001 	andeq	r0, r0, r1
    ec08:	00000001 	andeq	r0, r0, r1
	...
    ec18:	00000001 	andeq	r0, r0, r1
    ec1c:	00000001 	andeq	r0, r0, r1
    ec20:	00000001 	andeq	r0, r0, r1
    ec24:	00000001 	andeq	r0, r0, r1
	...
    ec38:	00000001 	andeq	r0, r0, r1
	...
    ec4c:	00000001 	andeq	r0, r0, r1
    ec50:	00000000 	andeq	r0, r0, r0
    ec54:	00000001 	andeq	r0, r0, r1
	...
    ec68:	00000001 	andeq	r0, r0, r1
	...
    ec74:	00000001 	andeq	r0, r0, r1
	...
    ec90:	00000001 	andeq	r0, r0, r1
	...
    ecac:	00000001 	andeq	r0, r0, r1
    ecb0:	00000001 	andeq	r0, r0, r1
	...
    ecd0:	00000001 	andeq	r0, r0, r1
	...
    ecec:	00000001 	andeq	r0, r0, r1
    ecf0:	00000001 	andeq	r0, r0, r1
	...
    ed10:	00000001 	andeq	r0, r0, r1
	...
    ed2c:	00000001 	andeq	r0, r0, r1
    ed30:	00000001 	andeq	r0, r0, r1
	...
    ed50:	00000001 	andeq	r0, r0, r1
	...
    ed6c:	00000001 	andeq	r0, r0, r1
    ed70:	00000001 	andeq	r0, r0, r1
	...
    ed90:	00000001 	andeq	r0, r0, r1
	...
    edac:	00000001 	andeq	r0, r0, r1
    edb0:	00000001 	andeq	r0, r0, r1
	...
    edd0:	00000001 	andeq	r0, r0, r1
	...
    edec:	00000001 	andeq	r0, r0, r1
    edf0:	00000001 	andeq	r0, r0, r1
	...
    ee10:	00000001 	andeq	r0, r0, r1
	...
    ee2c:	00000001 	andeq	r0, r0, r1
    ee30:	00000001 	andeq	r0, r0, r1
	...
    ee50:	00000001 	andeq	r0, r0, r1
	...
    ee6c:	00000001 	andeq	r0, r0, r1
    ee70:	00000001 	andeq	r0, r0, r1
	...
    ee90:	00000001 	andeq	r0, r0, r1
	...
    eeac:	00000001 	andeq	r0, r0, r1
    eeb0:	00000001 	andeq	r0, r0, r1
	...
    eed0:	00000001 	andeq	r0, r0, r1
	...
    eeec:	00000001 	andeq	r0, r0, r1
    eef0:	00000001 	andeq	r0, r0, r1
	...
    ef10:	00000001 	andeq	r0, r0, r1
	...
    ef2c:	00000001 	andeq	r0, r0, r1
	...

0000ef70 <n.5462>:
	...
    f17c:	00000001 	andeq	r0, r0, r1
    f180:	00000001 	andeq	r0, r0, r1
    f184:	00000001 	andeq	r0, r0, r1
    f188:	00000001 	andeq	r0, r0, r1
    f18c:	00000001 	andeq	r0, r0, r1
    f190:	00000001 	andeq	r0, r0, r1
    f194:	00000001 	andeq	r0, r0, r1
    f198:	00000001 	andeq	r0, r0, r1
    f19c:	00000001 	andeq	r0, r0, r1
	...
    f1b8:	00000001 	andeq	r0, r0, r1
	...
    f1e0:	00000001 	andeq	r0, r0, r1
	...
    f1f4:	00000001 	andeq	r0, r0, r1
	...
    f224:	00000001 	andeq	r0, r0, r1
	...
    f230:	00000001 	andeq	r0, r0, r1
	...
    f268:	00000001 	andeq	r0, r0, r1
    f26c:	00000000 	andeq	r0, r0, r0
    f270:	00000001 	andeq	r0, r0, r1
	...
    f2a8:	00000001 	andeq	r0, r0, r1
    f2ac:	00000000 	andeq	r0, r0, r0
    f2b0:	00000001 	andeq	r0, r0, r1
	...
    f2e8:	00000001 	andeq	r0, r0, r1
    f2ec:	00000000 	andeq	r0, r0, r0
    f2f0:	00000001 	andeq	r0, r0, r1
	...
    f328:	00000001 	andeq	r0, r0, r1
    f32c:	00000000 	andeq	r0, r0, r0
    f330:	00000001 	andeq	r0, r0, r1
	...
    f368:	00000001 	andeq	r0, r0, r1
    f36c:	00000000 	andeq	r0, r0, r0
    f370:	00000001 	andeq	r0, r0, r1
	...
    f3a8:	00000001 	andeq	r0, r0, r1
    f3ac:	00000000 	andeq	r0, r0, r0
    f3b0:	00000001 	andeq	r0, r0, r1
	...
    f3e8:	00000001 	andeq	r0, r0, r1
    f3ec:	00000000 	andeq	r0, r0, r0
    f3f0:	00000001 	andeq	r0, r0, r1
	...
    f428:	00000001 	andeq	r0, r0, r1
    f42c:	00000000 	andeq	r0, r0, r0
    f430:	00000001 	andeq	r0, r0, r1
	...
    f468:	00000001 	andeq	r0, r0, r1
    f46c:	00000000 	andeq	r0, r0, r0
    f470:	00000001 	andeq	r0, r0, r1
	...
    f4a8:	00000001 	andeq	r0, r0, r1
	...

0000f4f0 <o.5463>:
	...
    f684:	00000001 	andeq	r0, r0, r1
    f688:	00000001 	andeq	r0, r0, r1
    f68c:	00000001 	andeq	r0, r0, r1
    f690:	00000001 	andeq	r0, r0, r1
    f694:	00000001 	andeq	r0, r0, r1
	...
    f6c0:	00000001 	andeq	r0, r0, r1
	...
    f6d8:	00000001 	andeq	r0, r0, r1
	...
    f6fc:	00000001 	andeq	r0, r0, r1
	...
    f71c:	00000001 	andeq	r0, r0, r1
	...
    f738:	00000001 	andeq	r0, r0, r1
	...
    f760:	00000001 	andeq	r0, r0, r1
	...
    f774:	00000001 	andeq	r0, r0, r1
	...
    f7a4:	00000001 	andeq	r0, r0, r1
	...
    f7b4:	00000001 	andeq	r0, r0, r1
	...
    f7e8:	00000001 	andeq	r0, r0, r1
	...
    f7f4:	00000001 	andeq	r0, r0, r1
	...
    f828:	00000001 	andeq	r0, r0, r1
	...
    f834:	00000001 	andeq	r0, r0, r1
	...
    f868:	00000001 	andeq	r0, r0, r1
	...
    f874:	00000001 	andeq	r0, r0, r1
	...
    f8a8:	00000001 	andeq	r0, r0, r1
	...
    f8b4:	00000001 	andeq	r0, r0, r1
	...
    f8e8:	00000001 	andeq	r0, r0, r1
	...
    f8f4:	00000001 	andeq	r0, r0, r1
	...
    f928:	00000001 	andeq	r0, r0, r1
	...
    f934:	00000001 	andeq	r0, r0, r1
	...
    f964:	00000001 	andeq	r0, r0, r1
	...
    f978:	00000001 	andeq	r0, r0, r1
	...
    f9a0:	00000001 	andeq	r0, r0, r1
	...
    f9bc:	00000001 	andeq	r0, r0, r1
	...
    f9dc:	00000001 	andeq	r0, r0, r1
	...
    fa00:	00000001 	andeq	r0, r0, r1
	...
    fa18:	00000001 	andeq	r0, r0, r1
	...
    fa44:	00000001 	andeq	r0, r0, r1
    fa48:	00000001 	andeq	r0, r0, r1
    fa4c:	00000001 	andeq	r0, r0, r1
    fa50:	00000001 	andeq	r0, r0, r1
    fa54:	00000001 	andeq	r0, r0, r1
	...

0000fa70 <p.5464>:
	...
    fc14:	00000001 	andeq	r0, r0, r1
    fc18:	00000001 	andeq	r0, r0, r1
    fc1c:	00000001 	andeq	r0, r0, r1
    fc20:	00000001 	andeq	r0, r0, r1
	...
    fc50:	00000001 	andeq	r0, r0, r1
	...
    fc64:	00000001 	andeq	r0, r0, r1
	...
    fc8c:	00000001 	andeq	r0, r0, r1
	...
    fca8:	00000001 	andeq	r0, r0, r1
	...
    fccc:	00000001 	andeq	r0, r0, r1
	...
    fcec:	00000001 	andeq	r0, r0, r1
	...
    fd0c:	00000001 	andeq	r0, r0, r1
	...
    fd2c:	00000001 	andeq	r0, r0, r1
	...
    fd4c:	00000001 	andeq	r0, r0, r1
	...
    fd6c:	00000001 	andeq	r0, r0, r1
	...
    fd8c:	00000001 	andeq	r0, r0, r1
	...
    fdac:	00000001 	andeq	r0, r0, r1
	...
    fdcc:	00000001 	andeq	r0, r0, r1
    fdd0:	00000001 	andeq	r0, r0, r1
	...
    fde8:	00000001 	andeq	r0, r0, r1
	...
    fe0c:	00000001 	andeq	r0, r0, r1
    fe10:	00000000 	andeq	r0, r0, r0
    fe14:	00000001 	andeq	r0, r0, r1
    fe18:	00000001 	andeq	r0, r0, r1
    fe1c:	00000001 	andeq	r0, r0, r1
    fe20:	00000001 	andeq	r0, r0, r1
    fe24:	00000001 	andeq	r0, r0, r1
	...
    fe4c:	00000001 	andeq	r0, r0, r1
	...
    fe8c:	00000001 	andeq	r0, r0, r1
	...
    fecc:	00000001 	andeq	r0, r0, r1
	...
    ff0c:	00000001 	andeq	r0, r0, r1
	...
    ff4c:	00000001 	andeq	r0, r0, r1
	...

0000fff0 <q.5465>:
	...
   100f8:	00000001 	andeq	r0, r0, r1
   100fc:	00000001 	andeq	r0, r0, r1
   10100:	00000001 	andeq	r0, r0, r1
   10104:	00000001 	andeq	r0, r0, r1
	...
   10134:	00000001 	andeq	r0, r0, r1
	...
   10148:	00000001 	andeq	r0, r0, r1
	...
   10170:	00000001 	andeq	r0, r0, r1
	...
   1018c:	00000001 	andeq	r0, r0, r1
	...
   101b0:	00000001 	andeq	r0, r0, r1
	...
   101cc:	00000001 	andeq	r0, r0, r1
	...
   101f0:	00000001 	andeq	r0, r0, r1
	...
   1020c:	00000001 	andeq	r0, r0, r1
	...
   10230:	00000001 	andeq	r0, r0, r1
	...
   1024c:	00000001 	andeq	r0, r0, r1
	...
   10270:	00000001 	andeq	r0, r0, r1
	...
   1028c:	00000001 	andeq	r0, r0, r1
	...
   102b0:	00000001 	andeq	r0, r0, r1
	...
   102cc:	00000001 	andeq	r0, r0, r1
	...
   102f4:	00000001 	andeq	r0, r0, r1
	...
   10308:	00000001 	andeq	r0, r0, r1
   1030c:	00000001 	andeq	r0, r0, r1
	...
   10338:	00000001 	andeq	r0, r0, r1
   1033c:	00000001 	andeq	r0, r0, r1
   10340:	00000001 	andeq	r0, r0, r1
   10344:	00000001 	andeq	r0, r0, r1
   10348:	00000000 	andeq	r0, r0, r0
   1034c:	00000001 	andeq	r0, r0, r1
	...
   1038c:	00000001 	andeq	r0, r0, r1
	...
   103cc:	00000001 	andeq	r0, r0, r1
	...
   1040c:	00000001 	andeq	r0, r0, r1
	...
   1044c:	00000001 	andeq	r0, r0, r1
	...
   1048c:	00000001 	andeq	r0, r0, r1
	...
   104cc:	00000001 	andeq	r0, r0, r1
	...

00010570 <r.5466>:
	...
   10698:	00000001 	andeq	r0, r0, r1
   1069c:	00000001 	andeq	r0, r0, r1
   106a0:	00000001 	andeq	r0, r0, r1
	...
   106d4:	00000001 	andeq	r0, r0, r1
	...
   106e4:	00000001 	andeq	r0, r0, r1
	...
   10710:	00000001 	andeq	r0, r0, r1
	...
   10728:	00000001 	andeq	r0, r0, r1
	...
   1074c:	00000001 	andeq	r0, r0, r1
	...
   1078c:	00000001 	andeq	r0, r0, r1
	...
   107cc:	00000001 	andeq	r0, r0, r1
	...
   1080c:	00000001 	andeq	r0, r0, r1
	...
   1084c:	00000001 	andeq	r0, r0, r1
	...
   1088c:	00000001 	andeq	r0, r0, r1
	...
   108cc:	00000001 	andeq	r0, r0, r1
	...
   1090c:	00000001 	andeq	r0, r0, r1
	...
   1094c:	00000001 	andeq	r0, r0, r1
	...
   1098c:	00000001 	andeq	r0, r0, r1
	...
   109cc:	00000001 	andeq	r0, r0, r1
	...
   10a0c:	00000001 	andeq	r0, r0, r1
	...
   10a4c:	00000001 	andeq	r0, r0, r1
	...

00010af0 <s.5467>:
	...
   10b40:	00000001 	andeq	r0, r0, r1
   10b44:	00000001 	andeq	r0, r0, r1
   10b48:	00000001 	andeq	r0, r0, r1
   10b4c:	00000001 	andeq	r0, r0, r1
   10b50:	00000001 	andeq	r0, r0, r1
   10b54:	00000001 	andeq	r0, r0, r1
   10b58:	00000001 	andeq	r0, r0, r1
	...
   10b7c:	00000001 	andeq	r0, r0, r1
	...
   10b9c:	00000001 	andeq	r0, r0, r1
	...
   10bb8:	00000001 	andeq	r0, r0, r1
	...
   10bf4:	00000001 	andeq	r0, r0, r1
	...
   10c34:	00000001 	andeq	r0, r0, r1
	...
   10c74:	00000001 	andeq	r0, r0, r1
	...
   10cb8:	00000001 	andeq	r0, r0, r1
	...
   10cfc:	00000001 	andeq	r0, r0, r1
   10d00:	00000001 	andeq	r0, r0, r1
   10d04:	00000001 	andeq	r0, r0, r1
   10d08:	00000001 	andeq	r0, r0, r1
   10d0c:	00000001 	andeq	r0, r0, r1
   10d10:	00000001 	andeq	r0, r0, r1
   10d14:	00000001 	andeq	r0, r0, r1
   10d18:	00000001 	andeq	r0, r0, r1
   10d1c:	00000001 	andeq	r0, r0, r1
	...
   10d60:	00000001 	andeq	r0, r0, r1
	...
   10da4:	00000001 	andeq	r0, r0, r1
   10da8:	00000001 	andeq	r0, r0, r1
	...
   10de8:	00000001 	andeq	r0, r0, r1
	...
   10e28:	00000001 	andeq	r0, r0, r1
	...
   10e68:	00000001 	andeq	r0, r0, r1
	...
   10ea8:	00000001 	andeq	r0, r0, r1
	...
   10ee8:	00000001 	andeq	r0, r0, r1
	...
   10f24:	00000001 	andeq	r0, r0, r1
   10f28:	00000001 	andeq	r0, r0, r1
   10f2c:	00000000 	andeq	r0, r0, r0
   10f30:	00000001 	andeq	r0, r0, r1
	...
   10f60:	00000001 	andeq	r0, r0, r1
	...
   10f74:	00000001 	andeq	r0, r0, r1
	...
   10f9c:	00000001 	andeq	r0, r0, r1
	...
   10fb8:	00000001 	andeq	r0, r0, r1
   10fbc:	00000001 	andeq	r0, r0, r1
   10fc0:	00000001 	andeq	r0, r0, r1
   10fc4:	00000001 	andeq	r0, r0, r1
   10fc8:	00000001 	andeq	r0, r0, r1
   10fcc:	00000001 	andeq	r0, r0, r1
   10fd0:	00000001 	andeq	r0, r0, r1
   10fd4:	00000001 	andeq	r0, r0, r1
   10fd8:	00000001 	andeq	r0, r0, r1
	...

00011070 <t.5468>:
	...
   1110c:	00000001 	andeq	r0, r0, r1
	...
   1114c:	00000001 	andeq	r0, r0, r1
	...
   1118c:	00000001 	andeq	r0, r0, r1
	...
   111cc:	00000001 	andeq	r0, r0, r1
	...
   1120c:	00000001 	andeq	r0, r0, r1
	...
   1123c:	00000001 	andeq	r0, r0, r1
   11240:	00000001 	andeq	r0, r0, r1
   11244:	00000001 	andeq	r0, r0, r1
   11248:	00000001 	andeq	r0, r0, r1
   1124c:	00000001 	andeq	r0, r0, r1
   11250:	00000001 	andeq	r0, r0, r1
   11254:	00000001 	andeq	r0, r0, r1
   11258:	00000001 	andeq	r0, r0, r1
   1125c:	00000001 	andeq	r0, r0, r1
   11260:	00000001 	andeq	r0, r0, r1
	...
   1128c:	00000001 	andeq	r0, r0, r1
	...
   112cc:	00000001 	andeq	r0, r0, r1
	...
   1130c:	00000001 	andeq	r0, r0, r1
	...
   1134c:	00000001 	andeq	r0, r0, r1
	...
   1138c:	00000001 	andeq	r0, r0, r1
	...
   113cc:	00000001 	andeq	r0, r0, r1
	...
   1140c:	00000001 	andeq	r0, r0, r1
	...
   1144c:	00000001 	andeq	r0, r0, r1
	...
   1148c:	00000001 	andeq	r0, r0, r1
	...
   114cc:	00000001 	andeq	r0, r0, r1
	...
   1150c:	00000001 	andeq	r0, r0, r1
	...
   1154c:	00000001 	andeq	r0, r0, r1
	...

000115f0 <u.5469>:
	...
   11874:	00000001 	andeq	r0, r0, r1
	...
   118b4:	00000001 	andeq	r0, r0, r1
	...
   118e8:	00000001 	andeq	r0, r0, r1
	...
   118f4:	00000001 	andeq	r0, r0, r1
	...
   11928:	00000001 	andeq	r0, r0, r1
	...
   11934:	00000001 	andeq	r0, r0, r1
	...
   11968:	00000001 	andeq	r0, r0, r1
	...
   11974:	00000001 	andeq	r0, r0, r1
	...
   119a8:	00000001 	andeq	r0, r0, r1
	...
   119b4:	00000001 	andeq	r0, r0, r1
	...
   119e8:	00000001 	andeq	r0, r0, r1
	...
   119f4:	00000001 	andeq	r0, r0, r1
	...
   11a28:	00000001 	andeq	r0, r0, r1
	...
   11a34:	00000001 	andeq	r0, r0, r1
	...
   11a64:	00000001 	andeq	r0, r0, r1
	...
   11a78:	00000001 	andeq	r0, r0, r1
	...
   11aa0:	00000001 	andeq	r0, r0, r1
	...
   11abc:	00000001 	andeq	r0, r0, r1
	...
   11adc:	00000001 	andeq	r0, r0, r1
	...
   11b00:	00000001 	andeq	r0, r0, r1
	...
   11b18:	00000001 	andeq	r0, r0, r1
	...
   11b44:	00000001 	andeq	r0, r0, r1
   11b48:	00000001 	andeq	r0, r0, r1
   11b4c:	00000001 	andeq	r0, r0, r1
   11b50:	00000001 	andeq	r0, r0, r1
   11b54:	00000001 	andeq	r0, r0, r1
	...

00011b70 <v.5470>:
	...
   11db4:	00000001 	andeq	r0, r0, r1
	...
   11de4:	00000001 	andeq	r0, r0, r1
	...
   11df4:	00000001 	andeq	r0, r0, r1
	...
   11e24:	00000001 	andeq	r0, r0, r1
	...
   11e38:	00000001 	andeq	r0, r0, r1
	...
   11e60:	00000001 	andeq	r0, r0, r1
	...
   11e78:	00000001 	andeq	r0, r0, r1
	...
   11ea0:	00000001 	andeq	r0, r0, r1
	...
   11ebc:	00000001 	andeq	r0, r0, r1
	...
   11edc:	00000001 	andeq	r0, r0, r1
	...
   11efc:	00000001 	andeq	r0, r0, r1
	...
   11f1c:	00000001 	andeq	r0, r0, r1
	...
   11f40:	00000001 	andeq	r0, r0, r1
	...
   11f58:	00000001 	andeq	r0, r0, r1
	...
   11f80:	00000001 	andeq	r0, r0, r1
	...
   11f98:	00000001 	andeq	r0, r0, r1
	...
   11fc4:	00000001 	andeq	r0, r0, r1
	...
   11fd4:	00000001 	andeq	r0, r0, r1
	...
   12008:	00000001 	andeq	r0, r0, r1
   1200c:	00000000 	andeq	r0, r0, r0
   12010:	00000001 	andeq	r0, r0, r1
	...
   12048:	00000001 	andeq	r0, r0, r1
   1204c:	00000000 	andeq	r0, r0, r0
   12050:	00000001 	andeq	r0, r0, r1
	...
   1208c:	00000001 	andeq	r0, r0, r1
	...

000120f0 <w.5471>:
	...
   12390:	00000001 	andeq	r0, r0, r1
	...
   123ac:	00000001 	andeq	r0, r0, r1
   123b0:	00000001 	andeq	r0, r0, r1
	...
   123d0:	00000001 	andeq	r0, r0, r1
	...
   123ec:	00000001 	andeq	r0, r0, r1
   123f0:	00000001 	andeq	r0, r0, r1
	...
   12410:	00000001 	andeq	r0, r0, r1
	...
   1242c:	00000001 	andeq	r0, r0, r1
   12430:	00000001 	andeq	r0, r0, r1
	...
   12450:	00000001 	andeq	r0, r0, r1
	...
   1246c:	00000001 	andeq	r0, r0, r1
   12470:	00000001 	andeq	r0, r0, r1
	...
   12490:	00000001 	andeq	r0, r0, r1
	...
   124ac:	00000001 	andeq	r0, r0, r1
   124b0:	00000001 	andeq	r0, r0, r1
	...
   124d0:	00000001 	andeq	r0, r0, r1
	...
   124ec:	00000001 	andeq	r0, r0, r1
   124f0:	00000001 	andeq	r0, r0, r1
	...
   12510:	00000001 	andeq	r0, r0, r1
	...
   1252c:	00000001 	andeq	r0, r0, r1
   12530:	00000001 	andeq	r0, r0, r1
	...
   12550:	00000001 	andeq	r0, r0, r1
	...
   1256c:	00000001 	andeq	r0, r0, r1
   12570:	00000000 	andeq	r0, r0, r0
   12574:	00000001 	andeq	r0, r0, r1
	...
   1258c:	00000001 	andeq	r0, r0, r1
   12590:	00000000 	andeq	r0, r0, r0
   12594:	00000001 	andeq	r0, r0, r1
	...
   125ac:	00000001 	andeq	r0, r0, r1
	...
   125b8:	00000001 	andeq	r0, r0, r1
	...
   125c8:	00000001 	andeq	r0, r0, r1
	...
   125d8:	00000001 	andeq	r0, r0, r1
	...
   125e8:	00000001 	andeq	r0, r0, r1
   125ec:	00000001 	andeq	r0, r0, r1
	...
   125fc:	00000001 	andeq	r0, r0, r1
   12600:	00000001 	andeq	r0, r0, r1
   12604:	00000001 	andeq	r0, r0, r1
	...
   1261c:	00000001 	andeq	r0, r0, r1
   12620:	00000001 	andeq	r0, r0, r1
   12624:	00000001 	andeq	r0, r0, r1
	...

00012670 <xChar.5472>:
	...
   126f8:	00000001 	andeq	r0, r0, r1
	...
   12720:	00000001 	andeq	r0, r0, r1
	...
   1273c:	00000001 	andeq	r0, r0, r1
	...
   1275c:	00000001 	andeq	r0, r0, r1
	...
   12780:	00000001 	andeq	r0, r0, r1
	...
   12798:	00000001 	andeq	r0, r0, r1
	...
   127c4:	00000001 	andeq	r0, r0, r1
	...
   127d4:	00000001 	andeq	r0, r0, r1
	...
   12808:	00000001 	andeq	r0, r0, r1
   1280c:	00000000 	andeq	r0, r0, r0
   12810:	00000001 	andeq	r0, r0, r1
	...
   1284c:	00000001 	andeq	r0, r0, r1
	...
   12890:	00000001 	andeq	r0, r0, r1
	...
   128c8:	00000001 	andeq	r0, r0, r1
	...
   128d4:	00000001 	andeq	r0, r0, r1
	...
   12904:	00000001 	andeq	r0, r0, r1
	...
   12918:	00000001 	andeq	r0, r0, r1
	...
   12940:	00000001 	andeq	r0, r0, r1
	...
   1295c:	00000001 	andeq	r0, r0, r1
	...
   1297c:	00000001 	andeq	r0, r0, r1
	...
   129a0:	00000001 	andeq	r0, r0, r1
	...
   129b8:	00000001 	andeq	r0, r0, r1
	...
   129e4:	00000001 	andeq	r0, r0, r1
	...
   129f4:	00000001 	andeq	r0, r0, r1
	...
   12a28:	00000001 	andeq	r0, r0, r1
	...

00012bf0 <yChar.5473>:
	...
   12c78:	00000001 	andeq	r0, r0, r1
	...
   12ca0:	00000001 	andeq	r0, r0, r1
	...
   12cbc:	00000001 	andeq	r0, r0, r1
	...
   12cdc:	00000001 	andeq	r0, r0, r1
	...
   12d00:	00000001 	andeq	r0, r0, r1
	...
   12d18:	00000001 	andeq	r0, r0, r1
	...
   12d44:	00000001 	andeq	r0, r0, r1
	...
   12d54:	00000001 	andeq	r0, r0, r1
	...
   12d88:	00000001 	andeq	r0, r0, r1
   12d8c:	00000000 	andeq	r0, r0, r0
   12d90:	00000001 	andeq	r0, r0, r1
	...
   12dcc:	00000001 	andeq	r0, r0, r1
	...
   12e0c:	00000001 	andeq	r0, r0, r1
	...
   12e4c:	00000001 	andeq	r0, r0, r1
	...
   12e8c:	00000001 	andeq	r0, r0, r1
	...
   12ecc:	00000001 	andeq	r0, r0, r1
	...
   12f0c:	00000001 	andeq	r0, r0, r1
	...
   12f4c:	00000001 	andeq	r0, r0, r1
	...
   12f8c:	00000001 	andeq	r0, r0, r1
	...
   12fcc:	00000001 	andeq	r0, r0, r1
	...
   1300c:	00000001 	andeq	r0, r0, r1
	...
   1304c:	00000001 	andeq	r0, r0, r1
	...

00013170 <z.5474>:
	...
   1333c:	00000001 	andeq	r0, r0, r1
   13340:	00000001 	andeq	r0, r0, r1
   13344:	00000001 	andeq	r0, r0, r1
   13348:	00000001 	andeq	r0, r0, r1
   1334c:	00000001 	andeq	r0, r0, r1
   13350:	00000001 	andeq	r0, r0, r1
   13354:	00000001 	andeq	r0, r0, r1
   13358:	00000001 	andeq	r0, r0, r1
   1335c:	00000001 	andeq	r0, r0, r1
   13360:	00000001 	andeq	r0, r0, r1
	...
   1339c:	00000001 	andeq	r0, r0, r1
	...
   133d8:	00000001 	andeq	r0, r0, r1
	...
   13414:	00000001 	andeq	r0, r0, r1
	...
   13450:	00000001 	andeq	r0, r0, r1
	...
   1348c:	00000001 	andeq	r0, r0, r1
	...
   134c8:	00000001 	andeq	r0, r0, r1
	...
   13504:	00000001 	andeq	r0, r0, r1
	...
   13540:	00000001 	andeq	r0, r0, r1
	...
   1357c:	00000001 	andeq	r0, r0, r1
   13580:	00000001 	andeq	r0, r0, r1
   13584:	00000001 	andeq	r0, r0, r1
   13588:	00000001 	andeq	r0, r0, r1
   1358c:	00000001 	andeq	r0, r0, r1
   13590:	00000001 	andeq	r0, r0, r1
   13594:	00000001 	andeq	r0, r0, r1
   13598:	00000001 	andeq	r0, r0, r1
   1359c:	00000001 	andeq	r0, r0, r1
   135a0:	00000001 	andeq	r0, r0, r1
	...

Disassembly of section .bss:

000136f0 <a>:
   136f0:	00000000 	andeq	r0, r0, r0

Disassembly of section .rodata:

000136f4 <letters>:
   136f4:	c37f0000 	cmngt	pc, #0
   136f8:	c3037fc3 	movwgt	r7, #16323	; 0x3fc3
   136fc:	0000007e 	andeq	r0, r0, lr, ror r0
   13700:	fe000000 	cdp2	0, 0, cr0, cr0, cr0, {0}
   13704:	c3c3c3c3 	bicgt	ip, r3, #201326595	; 0xc000003
   13708:	c0c0c0fe 	strdgt	ip, [r0], #14
   1370c:	0000c0c0 	andeq	ip, r0, r0, asr #1
   13710:	c0c0c37e 	sbcgt	ip, r0, lr, ror r3
   13714:	007ec3c0 	rsbseq	ip, lr, r0, asr #7
   13718:	00000000 	andeq	r0, r0, r0
   1371c:	c3c37f00 	bicgt	r7, r3, #0, 30
   13720:	037fc3c3 	cmneq	pc, #201326595	; 0xc000003
   13724:	03030303 	movweq	r0, #13059	; 0x3303
   13728:	c07f0000 	rsbsgt	r0, pc, r0
   1372c:	c3c3fec0 	bicgt	pc, r3, #192, 28	; 0xc00
   13730:	0000007e 	andeq	r0, r0, lr, ror r0
   13734:	30000000 	andcc	r0, r0, r0
   13738:	30303030 	eorscc	r3, r0, r0, lsr r0
   1373c:	303030fc 	ldrshtcc	r3, [r0], -ip
   13740:	c37e1e33 	cmngt	lr, #816	; 0x330
   13744:	c37f0303 	cmngt	pc, #201326592	; 0xc000000
   13748:	007ec3c3 	rsbseq	ip, lr, r3, asr #7
   1374c:	00000000 	andeq	r0, r0, r0
   13750:	c3c3c300 	bicgt	ip, r3, #0, 6
   13754:	fec3c3c3 	cdp2	3, 12, cr12, cr3, cr3, {6}
   13758:	c0c0c0c0 	sbcgt	ip, r0, r0, asr #1
   1375c:	18180000 	ldmdane	r8, {}	; <UNPREDICTABLE>
   13760:	18181818 	ldmdane	r8, {r3, r4, fp, ip}
   13764:	18000018 	stmdane	r0, {r3, r4}
   13768:	0c6c3800 	stcleq	8, cr3, [ip], #-0
   1376c:	0c0c0c0c 	stceq	12, cr0, [ip], {12}
   13770:	00000c0c 	andeq	r0, r0, ip, lsl #24
   13774:	0000000c 	andeq	r0, r0, ip
   13778:	f0f8ccc6 			; <UNDEFINED> instruction: 0xf0f8ccc6
   1377c:	c0c6ccd8 	ldrdgt	ip, [r6], #200	; 0xc8
   13780:	00c0c0c0 	sbceq	ip, r0, r0, asr #1
   13784:	18187e00 	ldmdane	r8, {r9, sl, fp, ip, sp, lr}
   13788:	18181818 	ldmdane	r8, {r3, r4, fp, ip}
   1378c:	78181818 	ldmdavc	r8, {r3, r4, fp, ip}
   13790:	dbdb0000 	blle	ff6d3798 <UART0_ICR+0xc04d2754>
   13794:	dbdbdbdb 	blle	ff70a708 <UART0_ICR+0xc05096c4>
   13798:	000000fe 	strdeq	r0, [r0], -lr
   1379c:	c6000000 	strgt	r0, [r0], -r0
   137a0:	c6c6c6c6 	strbgt	ip, [r6], r6, asr #13
   137a4:	0000fcc6 	andeq	pc, r0, r6, asr #25
   137a8:	00000000 	andeq	r0, r0, r0
   137ac:	c6c6c67c 			; <UNDEFINED> instruction: 0xc6c6c67c
   137b0:	007cc6c6 	rsbseq	ip, ip, r6, asr #13
   137b4:	c0000000 	andgt	r0, r0, r0
   137b8:	c3fec0c0 	mvnsgt	ip, #192	; 0xc0
   137bc:	fec3c3c3 	cdp2	3, 12, cr12, cr3, cr3, {6}
   137c0:	00000000 	andeq	r0, r0, r0
   137c4:	7f030303 	svcvc	0x00030303
   137c8:	c3c3c3c3 	bicgt	ip, r3, #201326595	; 0xc000003
   137cc:	0000007f 	andeq	r0, r0, pc, ror r0
   137d0:	c0000000 	andgt	r0, r0, r0
   137d4:	c0c0c0c0 	sbcgt	ip, r0, r0, asr #1
   137d8:	0000fee0 	andeq	pc, r0, r0, ror #29
   137dc:	00000000 	andeq	r0, r0, r0
   137e0:	7e0303fe 	mcrvc	3, 0, r0, cr3, cr14, {7}
   137e4:	007fc0c0 	rsbseq	ip, pc, r0, asr #1
   137e8:	00000000 	andeq	r0, r0, r0
   137ec:	30361c00 	eorscc	r1, r6, r0, lsl #24
   137f0:	fc303030 	ldc2	0, cr3, [r0], #-192	; 0xffffff40
   137f4:	00303030 	eorseq	r3, r0, r0, lsr r0
   137f8:	c67e0000 	ldrbtgt	r0, [lr], -r0
   137fc:	c6c6c6c6 	strbgt	ip, [r6], r6, asr #13
   13800:	000000c6 	andeq	r0, r0, r6, asr #1
   13804:	18000000 	stmdane	r0, {}	; <UNPREDICTABLE>
   13808:	66663c3c 			; <UNDEFINED> instruction: 0x66663c3c
   1380c:	0000c3c3 	andeq	ip, r0, r3, asr #7
   13810:	00000000 	andeq	r0, r0, r0
   13814:	dbffe7c3 	blle	d728 <iChar.5457+0x338>
   13818:	00c3c3c3 	sbceq	ip, r3, r3, asr #7
   1381c:	00000000 	andeq	r0, r0, r0
   13820:	3c66c300 	stclcc	3, cr12, [r6], #-0
   13824:	c3663c18 	cmngt	r6, #24, 24	; 0x1800
   13828:	00000000 	andeq	r0, r0, r0
   1382c:	306060c0 	rsbcc	r6, r0, r0, asr #1
   13830:	66663c18 			; <UNDEFINED> instruction: 0x66663c18
   13834:	000000c3 	andeq	r0, r0, r3, asr #1
   13838:	ff000000 			; <UNDEFINED> instruction: 0xff000000
   1383c:	0c183060 	ldceq	0, cr3, [r8], {96}	; 0x60
   13840:	0000ff06 	andeq	pc, r0, r6, lsl #30
   13844:	00000000 	andeq	r0, r0, r0
   13848:	1818180f 	ldmdane	r8, {r0, r1, r2, r3, fp, ip}
   1384c:	1838f038 	ldmdane	r8!, {r3, r4, r5, ip, sp, lr, pc}
   13850:	000f1818 	andeq	r1, pc, r8, lsl r8	; <UNPREDICTABLE>
	...
   13bc8:	55494f46 	strbpl	r4, [r9, #-3910]	; 0xfffff0ba
   13bcc:	54464845 	strbpl	r4, [r6], #-2117	; 0xfffff7bb
   13bd0:	5745494f 	strbpl	r4, [r5, -pc, asr #18]
   13bd4:	4f50474a 	svcmi	0x0050474a
   13bd8:	5b4a5745 	blpl	12a98f4 <__end+0x1292d04>
   13bdc:	4a57454f 	bmi	15e5120 <__end+0x15ce530>
   13be0:	454f5046 	strbmi	r5, [pc, #-70]	; 13ba2 <letters+0x4ae>
   13be4:	3a5d4a57 	bcc	1766548 <__end+0x174f958>
   13be8:	Address 0x00013be8 is out of bounds.


Disassembly of section .stack:

00013beb <__stack_start-0x5>:
   13beb:	00000000 	andeq	r0, r0, r0
	...

00013bf0 <__stack_start>:
	...

Disassembly of section .ARM.attributes:

00000000 <.ARM.attributes>:
   0:	00003041 	andeq	r3, r0, r1, asr #32
   4:	61656100 	cmnvs	r5, r0, lsl #2
   8:	01006962 	tsteq	r0, r2, ror #18
   c:	00000026 	andeq	r0, r0, r6, lsr #32
  10:	45563705 	ldrbmi	r3, [r6, #-1797]	; 0xfffff8fb
  14:	070a0600 	streq	r0, [sl, -r0, lsl #12]
  18:	09010841 	stmdbeq	r1, {r0, r6, fp}
  1c:	14041202 	strne	r1, [r4], #-514	; 0xfffffdfe
  20:	17011501 	strne	r1, [r1, -r1, lsl #10]
  24:	1a011803 	bne	46038 <__end+0x2f448>
  28:	2a012201 	bcs	48834 <__end+0x31c44>
  2c:	44022c01 	strmi	r2, [r2], #-3073	; 0xfffff3ff
  30:	Address 0x00000030 is out of bounds.


Disassembly of section .comment:

00000000 <.comment>:
   0:	3a434347 	bcc	10d0d24 <__end+0x10ba134>
   4:	4e472820 	cdpmi	8, 4, cr2, cr7, cr0, {1}
   8:	6f542055 	svcvs	0x00542055
   c:	20736c6f 	rsbscs	r6, r3, pc, ror #24
  10:	20726f66 	rsbscs	r6, r2, r6, ror #30
  14:	206d7241 	rsbcs	r7, sp, r1, asr #4
  18:	65626d45 	strbvs	r6, [r2, #-3397]!	; 0xfffff2bb
  1c:	64656464 	strbtvs	r6, [r5], #-1124	; 0xfffffb9c
  20:	6f725020 	svcvs	0x00725020
  24:	73736563 	cmnvc	r3, #415236096	; 0x18c00000
  28:	2073726f 	rsbscs	r7, r3, pc, ror #4
  2c:	30322d38 	eorscc	r2, r2, r8, lsr sp
  30:	712d3831 			; <UNDEFINED> instruction: 0x712d3831
  34:	616d2d34 	cmnvs	sp, r4, lsr sp
  38:	29726f6a 	ldmdbcs	r2!, {r1, r3, r5, r6, r8, r9, sl, fp, sp, lr}^
  3c:	322e3820 	eorcc	r3, lr, #32, 16	; 0x200000
  40:	3220312e 	eorcc	r3, r0, #-2147483637	; 0x8000000b
  44:	31383130 	teqcc	r8, r0, lsr r1
  48:	20333132 	eorscs	r3, r3, r2, lsr r1
  4c:	6c657228 	sfmvs	f7, 2, [r5], #-160	; 0xffffff60
  50:	65736165 	ldrbvs	r6, [r3, #-357]!	; 0xfffffe9b
  54:	675b2029 	ldrbvs	r2, [fp, -r9, lsr #32]
  58:	382d6363 	stmdacc	sp!, {r0, r1, r5, r6, r8, r9, sp, lr}
  5c:	6172622d 	cmnvs	r2, sp, lsr #4
  60:	2068636e 	rsbcs	r6, r8, lr, ror #6
  64:	69766572 	ldmdbvs	r6!, {r1, r4, r5, r6, r8, sl, sp, lr}^
  68:	6e6f6973 			; <UNDEFINED> instruction: 0x6e6f6973
  6c:	37363220 	ldrcc	r3, [r6, -r0, lsr #4]!
  70:	5d343730 	ldcpl	7, cr3, [r4, #-192]!	; 0xffffff40
	...
